(lp0
(lp1
(S'\x0c'
p2
ccopy_reg
_reconstructor
p3
(c__main__
CharCount
p4
c__builtin__
dict
p5
(dp6
S'f'
p7
I1
stp8
Rp9
tp10
a(S' '
p11
g3
(g4
g5
(dp12
S'\x0c'
p13
I49
sg11
I260717
sS'.'
p14
I2816
sS'0'
p15
I9
sS'2'
p16
I613
sS'4'
p17
I200
sS'6'
p18
I170
sS'8'
p19
I82
sS'B'
p20
I13952
sS'D'
p21
I5847
sS'F'
p22
I9337
sS'H'
p23
I16309
sS'J'
p24
I6068
sS'L'
p25
I6886
sS'N'
p26
I7985
sS'P'
p27
I11122
sS'R'
p28
I5205
sS'T'
p29
I27660
sS'V'
p30
I3286
sS'X'
p31
I655
sS'Z'
p32
I261
sS'`'
p33
I1808
sS'b'
p34
I110127
sS'd'
p35
I74907
sS'f'
p36
I96355
sS'h'
p37
I194933
sS'j'
p38
I6296
sS'l'
p39
I65606
sS'n'
p40
I56517
sS'p'
p41
I66805
sS'r'
p42
I54801
sS't'
p43
I403427
sS'v'
p44
I15616
sS'x'
p45
I17
sS'z'
p46
I229
sS'1'
p47
I1485
sS'3'
p48
I284
sS'5'
p49
I147
sS'7'
p50
I122
sS'9'
p51
I91
sS'A'
p52
I20332
sS'C'
p53
I9874
sS'E'
p54
I4918
sS'G'
p55
I5814
sS'I'
p56
I47477
sS'K'
p57
I2618
sS'M'
p58
I17544
sS'O'
p59
I5440
sS'Q'
p60
I371
sS'S'
p61
I13914
sS'U'
p62
I961
sS'W'
p63
I11309
sS'Y'
p64
I2858
sS'_'
p65
I197
sS'a'
p66
I290991
sS'c'
p67
I92238
sS'e'
p68
I47910
sS'g'
p69
I44808
sS'i'
p70
I125719
sS'k'
p71
I14273
sS'm'
p72
I99576
sS'o'
p73
I162631
sS'q'
p74
I5910
sS's'
p75
I183712
sS'u'
p76
I27990
sS'w'
p77
I188396
sS'y'
p78
I29123
stp79
Rp80
tp81
a(g14
g3
(g4
g5
(dp82
g11
I87832
sS'.'
p83
I4176
sS'1'
p84
I1
sS'0'
p85
I11
sg48
I4
sg16
I17
sS'5'
p86
I1
sg17
I5
sg50
I2
sg18
I4
sg51
I7
sg19
I1
sS'A'
p87
I41
sS'C'
p88
I8
sg20
I17
sg54
I19
sS'D'
p89
I8
sg55
I17
sS'F'
p90
I10
sS'I'
p91
I122
sS'H'
p92
I47
sS'K'
p93
I2
sS'J'
p94
I3
sS'M'
p95
I45
sS'L'
p96
I9
sg59
I11
sg26
I18
sS'Q'
p97
I2
sS'P'
p98
I8
sg61
I48
sS'R'
p99
I2
sS'U'
p100
I2
sS'T'
p101
I89
sg63
I38
sS'V'
p102
I5
sS'Y'
p103
I15
sS'_'
p104
I15
sS'a'
p105
I5
sS'`'
p106
I5
sg67
I32
sS'b'
p107
I1
sg68
I37
sS'i'
p108
I14
sS'h'
p109
I1
sg72
I29
sS'l'
p110
I1
sS'o'
p111
I1
sS'n'
p112
I3
sg75
I9
sS'r'
p113
I2
sg76
I21
sg43
I31
sS'v'
p114
I3
sg45
I5
sg46
I9
stp115
Rp116
tp117
a(g47
g3
(g4
g5
(dp118
S'O'
p119
I1
sg105
I1
sg11
I118
sg48
I158
sg14
I61
sg47
I197
sg85
I287
sg75
I45
sg16
I226
sg49
I212
sg17
I180
sg50
I214
sg18
I178
sg51
I127
sg19
I650
sg43
I25
stp120
Rp121
tp122
a(g85
g3
(g4
g5
(dp123
S'I'
p124
I3
sg45
I5
sg66
I7
sg11
I530
sS'h'
p125
I5
sS'm'
p126
I1
sg48
I15
sg14
I65
sg47
I29
sg85
I718
sS's'
p127
I7
sg16
I28
sg49
I43
sg17
I18
sg50
I26
sg18
I25
sg51
I35
sS'8'
p128
I21
sg43
I70
stp129
Rp130
tp131
a(g48
g3
(g4
g5
(dp132
g18
I32
sg16
I85
sg11
I96
sS'd'
p133
I7
sS'f'
p134
I1
sS'i'
p135
I2
sg125
I2
sg126
I2
sg14
I46
sg47
I62
sg85
I172
sg48
I51
sg42
I33
sg49
I43
sg17
I35
sg50
I40
sS'v'
p136
I1
sg51
I37
sg19
I32
sg43
I18
stp137
Rp138
tp139
a(g16
g3
(g4
g5
(dp140
g14
I66
sg11
I148
sS'd'
p141
I7
sS'm'
p142
I2
sS's'
p143
I1
sg40
I23
sg47
I123
sg85
I216
sg48
I108
sg16
I96
sg49
I133
sg17
I98
sg50
I89
sg18
I97
sg51
I70
sg19
I83
sg43
I18
stp144
Rp145
tp146
a(g49
g3
(g4
g5
(dp147
S'9'
p148
I15
sS'T'
p149
I2
sg11
I85
sg35
I1
sg14
I35
sg47
I20
sg85
I137
sg48
I21
sS'2'
p150
I30
sg49
I28
sg43
I65
sg50
I26
sg18
I19
sS'y'
p151
I1
sg19
I20
sg17
I26
stp152
Rp153
tp154
a(g17
g3
(g4
g5
(dp155
g11
I74
sg43
I70
sg14
I39
sg47
I22
sg85
I79
sg48
I29
sg16
I23
sg49
I33
sS'T'
p156
I1
sg50
I33
sg18
I21
sg51
I20
sS'x'
p157
I1
sg19
I38
sS'4'
p158
I18
stp159
Rp160
tp161
a(g50
g3
(g4
g5
(dp162
g11
I67
sg125
I1
sS'm'
p163
I2
sg48
I14
sg14
I44
sg47
I23
sg85
I37
sS's'
p164
I1
sg16
I40
sg49
I18
sg43
I41
sg50
I28
sg18
I20
sg51
I31
sg19
I35
sg17
I12
stp165
Rp166
tp167
a(g18
g3
(g4
g5
(dp168
g149
I1
sg11
I62
sg126
I3
sg14
I31
sg47
I24
sg85
I82
sg48
I18
sg16
I34
sS'5'
p169
I28
sg17
I23
sg50
I27
sg18
I29
sg51
I21
sg19
I24
sS'q'
p170
I1
sg43
I66
stp171
Rp172
tp173
a(g51
g3
(g4
g5
(dp174
g11
I61
sS'd'
p175
I1
sg14
I25
sg47
I17
sg85
I38
sg48
I58
sg16
I24
sS'5'
p176
I13
sg17
I20
sg50
I29
sg18
I16
sg51
I18
sg128
I8
sg43
I39
stp177
Rp178
tp179
a(g19
g3
(g4
g5
(dp180
g11
I63
sS'h'
p181
I2
sg126
I1
sg110
I2
sg14
I20
sg47
I181
sg85
I129
sg48
I127
sg16
I80
sg49
I21
sg43
I55
sg50
I19
sg18
I59
sg51
I34
sS'8'
p182
I11
sS'4'
p183
I45
stp184
Rp185
tp186
a(g52
g3
(g4
g5
(dp187
g11
I3398
sS'.'
p188
I31
sS'A'
p189
I4
sg53
I105
sg20
I57
sg54
I17
sg21
I95
sg55
I65
sS'F'
p190
I15
sg56
I176
sS'H'
p191
I6
sS'K'
p192
I21
sS'J'
p193
I1
sg58
I108
sg25
I210
sg26
I487
sS'Q'
p194
I2
sg27
I1180
sg61
I201
sg28
I497
sS'U'
p195
I46
sg29
I263
sS'W'
p196
I15
sg30
I75
sg64
I74
sg31
I5
sg32
I6
sS'a'
p197
I4
sg67
I186
sg34
I392
sS'e'
p198
I2
sg35
I308
sg69
I277
sg36
I843
sS'i'
p199
I81
sg37
I763
sS'k'
p200
I67
sS'j'
p201
I7
sg72
I1217
sg39
I2507
sS'o'
p202
I138
sg40
I10239
sS'q'
p203
I3
sg41
I221
sg75
I2221
sg42
I1576
sg76
I688
sg43
I2276
sg77
I48
sg44
I54
sS'y'
p204
I53
sS'x'
p205
I2
sg46
I26
stp206
Rp207
tp208
a(g53
g3
(g4
g5
(dp209
g52
I131
sg53
I20
sg54
I136
sg21
I14
sg56
I69
sg23
I1947
sg57
I48
sg25
I40
sg59
I165
sS'P'
p210
I5
sS'S'
p211
I5
sg28
I31
sg62
I35
sg29
I118
sg103
I18
sg66
I2602
sg11
I53
sg68
I300
sg70
I268
sg37
I2323
sg39
I445
sg73
I4539
sg14
I22
sg164
I2
sg42
I498
sg76
I196
sg78
I45
sS'z'
p212
I22
stp213
Rp214
tp215
a(g20
g3
(g4
g5
(dp216
g52
I42
sg53
I37
sS'B'
p217
I5
sg54
I184
sS'D'
p218
I1
sg56
I56
sS'K'
p219
I351
sg58
I5
sg25
I60
sg59
I148
sg61
I22
sg28
I34
sg62
I45
sg64
I44
sS'X'
p220
I3
sg66
I2374
sS' '
p221
I23
sg68
I3188
sg70
I896
sS'h'
p222
I87
sS'j'
p223
I5
sg39
I479
sg73
I2109
sg14
I19
sg42
I901
sg76
I6799
sS'w'
p224
I3
sg78
I666
stp225
Rp226
tp227
a(g54
g3
(g4
g5
(dp228
g11
I1128
sg14
I186
sg52
I194
sg53
I146
sg20
I20
sg54
I116
sg21
I175
sg55
I37
sg22
I23
sg56
I66
sS'H'
p229
I7
sS'K'
p230
I8
sS'J'
p231
I1
sg58
I91
sg25
I151
sS'O'
p232
I17
sg26
I501
sg60
I12
sS'P'
p233
I94
sg61
I343
sg28
I1667
sS'U'
p234
I19
sg29
I213
sg63
I80
sg30
I98
sg64
I37
sg31
I84
sg66
I370
sg67
I41
sS'b'
p235
I9
sg35
I83
sg69
I54
sS'f'
p236
I20
sg70
I66
sS'h'
p237
I84
sS'k'
p238
I6
sg223
I1
sg72
I1379
sg39
I207
sS'o'
p239
I4
sg40
I1226
sg74
I22
sS'p'
p240
I123
sg75
I133
sg42
I103
sg76
I310
sg43
I118
sg44
I1066
sg204
I71
sg45
I270
sS'z'
p241
I5
stp242
Rp243
tp244
a(g21
g3
(g4
g5
(dp245
g11
I341
sg188
I61
sg52
I75
sg88
I1
sg54
I223
sS'D'
p246
I6
sS'G'
p247
I8
sS'F'
p248
I5
sg56
I183
sS'M'
p249
I1
sS'L'
p250
I1
sg59
I90
sS'N'
p251
I9
sg210
I1
sg61
I42
sS'R'
p252
I70
sg195
I23
sS'V'
p253
I4
sS'Y'
p254
I11
sg66
I896
sg68
I1969
sg70
I727
sg38
I5
sS'm'
p255
I131
sg73
I2380
sS'n'
p256
I8
sS's'
p257
I1
sg42
I567
sg76
I732
sS'w'
p258
I3
sS'v'
p259
I1
sS'y'
p260
I14
stp261
Rp262
tp263
a(g55
g3
(g4
g5
(dp264
g11
I133
sg188
I12
sg52
I51
sg54
I104
sg21
I3
sS'G'
p265
I24
sS'F'
p266
I1
sg56
I34
sg23
I68
sS'M'
p267
I4
sg25
I26
sg59
I53
sS'N'
p268
I41
sS'S'
p269
I10
sg28
I66
sg62
I94
sS'T'
p270
I4
sS'Y'
p271
I2
sS'Z'
p272
I1
sg66
I669
sg68
I997
sS'd'
p273
I1
sg70
I515
sg237
I242
sg39
I184
sg73
I2697
sS'n'
p274
I3
sg42
I1049
sg76
I769
sg224
I1
sS'y'
p275
I1
sS'z'
p276
I1
stp277
Rp278
tp279
a(g22
g3
(g4
g5
(dp280
S'A'
p281
I127
sg54
I26
sS'F'
p282
I22
sg56
I108
sg96
I14
sg59
I180
sS'S'
p283
I1
sg28
I58
sg62
I16
sg29
I50
sg66
I2175
sg11
I310
sg68
I413
sg70
I881
sg223
I1
sg39
I323
sg73
I2686
sg14
I13
sg42
I4378
sg76
I157
sg260
I1
stp284
Rp285
tp286
a(g56
g3
(g4
g5
(dp287
g11
I38914
sg14
I599
sg52
I86
sg53
I208
sg20
I50
sg54
I107
sg21
I68
sg55
I118
sg22
I61
sg56
I1039
sg57
I11
sg58
I94
sg25
I156
sg59
I117
sg26
I650
sS'Q'
p288
I2
sg27
I20
sg61
I274
sg28
I114
sg62
I27
sg29
I331
sg30
I272
sg31
I135
sg272
I7
sS'_'
p289
I38
sS'a'
p290
I1
sg67
I124
sS'b'
p291
I7
sS'd'
p292
I23
sS'g'
p293
I43
sg36
I1721
sg72
I176
sg39
I194
sg202
I25
sg40
I4041
sg240
I32
sg75
I887
sg42
I102
sg43
I7478
sS'v'
p294
I86
sS'y'
p295
I2
sS'x'
p296
I1
sS'z'
p297
I2
stp298
Rp299
tp300
a(g23
g3
(g4
g5
(dp301
g11
I144
sS'.'
p302
I160
sS'1'
p303
I165
sS'3'
p304
I32
sS'2'
p305
I66
sS'5'
p306
I17
sS'4'
p307
I17
sS'7'
p308
I17
sS'6'
p309
I17
sS'9'
p310
I17
sS'8'
p311
I17
sg52
I1354
sS'B'
p312
I1
sg54
I838
sS'F'
p313
I2
sg56
I290
sg267
I4
sg59
I185
sS'N'
p314
I10
sg97
I2
sS'S'
p315
I4
sS'R'
p316
I302
sg62
I26
sg29
I59
sg271
I11
sg66
I2487
sg68
I13444
sg70
I2390
sS'h'
p317
I1
sS'm'
p318
I14
sg73
I2808
sS's'
p319
I4
sg76
I616
sS'v'
p320
I3
sg78
I20
stp321
Rp322
tp323
a(g57
g3
(g4
g5
(dp324
g11
I140
sS'.'
p325
I28
sg303
I182
sg304
I20
sg305
I22
sg306
I23
sg307
I16
sg308
I14
sg309
I27
sg310
I24
sg311
I23
sg281
I5
sS'E'
p326
I80
sS'F'
p327
I1
sg56
I31
sS'H'
p328
I1
sS'K'
p329
I4
sg96
I9
sg59
I4
sg26
I9
sS'S'
p330
I15
sS'R'
p331
I3
sS'U'
p332
I1
sg196
I4
sg271
I2
sg66
I397
sg68
I452
sg70
I849
sS'h'
p333
I105
sS'l'
p334
I28
sg73
I265
sS'n'
p335
I94
sg42
I85
sg76
I662
sg224
I1
sS'y'
p336
I7
stp337
Rp338
tp339
a(g24
g3
(g4
g5
(dp340
g66
I1245
sS' '
p341
I1
sg54
I70
sg133
I1
sg199
I248
sS'O'
p342
I73
sg14
I109
sS'I'
p343
I2
sg127
I1
sg281
I17
sg73
I2599
sg76
I1449
sg62
I24
sg68
I1619
stp344
Rp345
tp346
a(g58
g3
(g4
g5
(dp347
g52
I248
sg53
I14
sg20
I41
sg54
I215
sS'D'
p348
I3
sS'G'
p349
I6
sg56
I109
sg95
I20
sg96
I2
sg59
I105
sg26
I10
sg27
I45
sg330
I21
sg252
I9
sS'U'
p350
I29
sS'W'
p351
I5
sg64
I28
sg66
I7925
sg11
I99
sS'c'
p352
I315
sg68
I1459
sS'f'
p353
I1
sg70
I2055
sg142
I2
sS'l'
p354
I2
sg73
I3968
sg14
I1060
sS's'
p355
I2
sg42
I2469
sg76
I483
sg78
I1421
stp356
Rp357
tp358
a(g25
g3
(g4
g5
(dp359
g11
I118
sg325
I37
sg47
I3
sS'3'
p360
I2
sg16
I6
sg49
I2
sS'4'
p361
I2
sg18
I1
sg19
I2
sg52
I136
sS'C'
p362
I11
sg217
I1
sg54
I249
sS'D'
p363
I48
sg247
I7
sg22
I23
sg56
I208
sg92
I4
sg57
I24
sg231
I7
sS'M'
p364
I10
sg25
I136
sg59
I96
sg251
I2
sg27
I4
sg211
I30
sg252
I6
sg62
I63
sg29
I10
sS'W'
p365
I1
sg253
I6
sg254
I31
sg66
I2470
sg68
I1867
sg70
I1309
sS'h'
p366
I65
sg39
I5
sg73
I2098
sS'u'
p367
I600
sS'w'
p368
I1
sg259
I2
sg78
I34
stp369
Rp370
tp371
a(g59
g3
(g4
g5
(dp372
g11
I457
sg14
I30
sg52
I10
sg53
I44
sg20
I27
sg54
I23
sS'D'
p373
I47
sg265
I39
sg22
I283
sS'I'
p374
I17
sS'H'
p375
I16
sS'K'
p376
I120
sg24
I50
sg58
I160
sg25
I107
sg342
I188
sg26
I479
sg27
I102
sg61
I74
sg28
I380
sg62
I328
sg29
I108
sg63
I68
sg30
I34
sg254
I6
sS'X'
p377
I1
sS'Z'
p378
I3
sS'a'
p379
I4
sg67
I223
sg34
I106
sS'e'
p380
I1
sS'd'
p381
I27
sS'g'
p382
I11
sg36
I973
sg199
I8
sg37
I1195
sS'k'
p383
I2
sg72
I52
sg39
I199
sS'o'
p384
I46
sg40
I2928
sg41
I72
sS's'
p385
I23
sg42
I560
sg76
I461
sg43
I139
sS'w'
p386
I25
sg44
I57
sS'y'
p387
I4
sS'x'
p388
I9
sS'z'
p389
I75
stp390
Rp391
tp392
a(g26
g3
(g4
g5
(dp393
g52
I130
sg53
I103
sg20
I49
sg54
I259
sg21
I323
sg55
I211
sg248
I5
sg56
I97
sg191
I3
sg57
I21
sg94
I8
sS'L'
p394
I7
sg59
I160
sg26
I28
sS'Q'
p395
I1
sS'P'
p396
I2
sg61
I98
sg99
I14
sg62
I23
sg29
I354
sS'W'
p397
I5
sg30
I16
sg64
I25
sg66
I3048
sg11
I464
sg68
I1860
sg70
I1259
sg73
I4794
sg14
I95
sg76
I58
sg336
I1
stp398
Rp399
tp400
a(g60
g3
(g4
g5
(dp401
g62
I39
sS'C'
p402
I1
sS'.'
p403
I3
sg76
I483
sS' '
p404
I2
stp405
Rp406
tp407
a(g27
g3
(g4
g5
(dp408
g11
I35
sg14
I69
sg303
I17
sg305
I13
sg52
I155
sg54
I154
sg349
I9
sS'I'
p409
I51
sS'H'
p410
I35
sS'K'
p411
I2
sg95
I7
sg25
I64
sg59
I110
sg233
I25
sg61
I12
sg28
I170
sg62
I45
sg29
I1128
sg271
I7
sg66
I2228
sg68
I1629
sS'f'
p412
I48
sg70
I2295
sg37
I394
sg39
I505
sg73
I1022
sS's'
p413
I63
sg42
I4214
sg76
I292
sg43
I9
sg224
I3
sg78
I39
stp414
Rp415
tp416
a(g61
g3
(g4
g5
(dp417
g11
I650
sg14
I102
sg52
I57
sg53
I54
sS'B'
p418
I1
sg54
I302
sg89
I4
sg265
I2
sg248
I5
sg56
I125
sg23
I59
sg192
I6
sg58
I21
sg394
I19
sg59
I80
sg268
I3
sg288
I4
sg27
I33
sg61
I123
sg99
I3
sg62
I45
sg29
I278
sg397
I6
sS'Y'
p419
I3
sg66
I1989
sg67
I1157
sg68
I1313
sg70
I936
sg37
I4388
sg71
I42
sg72
I332
sg39
I133
sg73
I3488
sg335
I110
sS'q'
p420
I39
sg41
I719
sS's'
p421
I1
sg76
I992
sg43
I1457
sg77
I126
sg259
I5
sg78
I116
sg212
I16
stp422
Rp423
tp424
a(g28
g3
(g4
g5
(dp425
g11
I1467
sg83
I396
sg52
I200
sg53
I24
sg20
I14
sg54
I335
sg21
I102
sg55
I64
sg90
I3
sg56
I189
sg410
I1
sS'K'
p426
I53
sg58
I27
sg25
I29
sg59
I211
sg26
I68
sg194
I2
sg27
I18
sg61
I97
sg28
I62
sg195
I41
sg29
I218
sg63
I9
sS'V'
p427
I14
sg254
I93
sg66
I347
sg68
I1129
sg70
I313
sg37
I53
sg73
I2092
sS'n'
p428
I1
sS'r'
p429
I3
sg76
I1894
sS't'
p430
I1
sg275
I28
sg296
I1
stp431
Rp432
tp433
a(g62
g3
(g4
g5
(dp434
g11
I86
sg188
I7
sg281
I17
sg53
I46
sg20
I32
sg54
I56
sg21
I44
sS'G'
p435
I17
sg90
I7
sS'I'
p436
I19
sg230
I2
sg231
I1
sg58
I56
sg25
I59
sS'O'
p437
I1
sg26
I128
sg233
I21
sg61
I107
sg28
I213
sg332
I1
sg29
I168
sS'V'
p438
I2
sS'X'
p439
I2
sS'Z'
p440
I3
sg352
I1
sS'b'
p441
I2
sg292
I1
sg382
I15
sS'h'
p442
I32
sS'k'
p443
I6
sg72
I11
sS'l'
p444
I32
sg40
I741
sg41
I246
sg413
I26
sg42
I65
sS't'
p445
I39
sg259
I12
sg205
I2
stp446
Rp447
tp448
a(g29
g3
(g4
g5
(dp449
g11
I725
sg188
I161
sg52
I123
sg88
I12
sS'B'
p450
I2
sg54
I1561
sg266
I4
sg56
I238
sg23
I1092
sg58
I22
sg25
I27
sg59
I296
sg26
I9
sg27
I16
sg61
I70
sg28
I86
sg62
I58
sg29
I105
sg63
I79
sg64
I137
sg272
I1
sg66
I607
sS'c'
p451
I1
sg68
I752
sg70
I1030
sg37
I32962
sg73
I2626
sS'p'
p452
I2
sg355
I91
sg42
I508
sg76
I443
sg77
I445
sg320
I11
sg204
I44
sg241
I2
stp453
Rp454
tp455
a(g63
g3
(g4
g5
(dp456
g52
I150
sg54
I95
sg218
I3
sS'G'
p457
I2
sg56
I91
sg23
I139
sg250
I2
sg59
I99
sg26
I11
sg330
I5
sg331
I5
sS'U'
p458
I1
sg271
I3
sg66
I897
sg11
I43
sg68
I4491
sg70
I1631
sg37
I9308
sg110
I1
sg73
I1493
sg14
I23
sS'r'
p459
I50
sS'u'
p460
I16
sg387
I2
stp461
Rp462
tp463
a(g30
g3
(g4
g5
(dp464
g52
I57
sg312
I1
sg54
I244
sg56
I481
sg232
I20
sS'R'
p465
I14
sg332
I2
sg419
I4
sg66
I2029
sg341
I22
sg68
I573
sg70
I483
sS'l'
p466
I19
sg73
I198
sS'.'
p467
I146
sS'r'
p468
I4
sS'u'
p469
I2
sg151
I26
stp470
Rp471
tp472
a(g64
g3
(g4
g5
(dp473
g281
I5
sS'C'
p474
I1
sS'B'
p475
I2
sg326
I21
sg348
I1
sS'G'
p476
I1
sg266
I2
sg124
I5
sg267
I2
sg250
I3
sg59
I93
sS'P'
p477
I8
sg61
I19
sg465
I2
sS'T'
p478
I2
sg66
I106
sg11
I244
sg451
I1
sg68
I1895
sS'i'
p479
I16
sg73
I4228
sS'.'
p480
I21
sg355
I6
sS'r'
p481
I1
sS'u'
p482
I28
sg294
I7
stp483
Rp484
tp485
a(g31
g3
(g4
g5
(dp486
S'A'
p487
I1
sg341
I19
sS'C'
p488
I4
sS'e'
p489
I2
sg56
I334
sg14
I68
sg47
I1
sg27
I17
sg16
I1
sS'u'
p490
I32
sg29
I66
sg30
I236
sg31
I167
sS'E'
p491
I2
stp492
Rp493
tp494
a(g32
g3
(g4
g5
(dp495
S'A'
p496
I1
sS'E'
p497
I11
sg374
I2
sg59
I6
sg440
I1
sS'a'
p498
I38
sS' '
p499
I2
sg68
I119
sg273
I7
sg135
I26
sS'h'
p500
I49
sg202
I18
sS'.'
p501
I1
sg257
I1
sS'n'
p502
I17
sg469
I9
sg224
I1
stp503
Rp504
tp505
a(g65
g3
(g4
g5
(dp506
g11
I113
sg501
I30
sg487
I9
sg474
I1
sS'D'
p507
I1
sg436
I40
sS'H'
p508
I3
sS'M'
p509
I5
sS'L'
p510
I1
sS'O'
p511
I1
sS'N'
p512
I2
sS'P'
p513
I1
sS'U'
p514
I1
sS'T'
p515
I10
sS'V'
p516
I1
sS'_'
p517
I739
sS'a'
p518
I11
sS'c'
p519
I8
sg291
I2
sS'e'
p520
I7
sS'd'
p521
I5
sg412
I11
sS'i'
p522
I12
sg125
I3
sg126
I6
sS'l'
p523
I6
sS'o'
p524
I4
sS'n'
p525
I14
sS'p'
p526
I6
sS's'
p527
I11
sS'r'
p528
I2
sS'u'
p529
I3
sS't'
p530
I9
sS'w'
p531
I7
sS'v'
p532
I3
sS'y'
p533
I2
sg45
I4
sS'z'
p534
I1
stp535
Rp536
tp537
a(g66
g3
(g4
g5
(dp538
g11
I64067
sg14
I1479
sS'1'
p539
I4
sS'3'
p540
I1
sS'S'
p541
I1
sS'_'
p542
I8
sg66
I103
sS'`'
p543
I8
sg67
I35593
sg34
I18539
sg68
I765
sg35
I56930
sg69
I17891
sg36
I7118
sg70
I47502
sg37
I1144
sg71
I14166
sg38
I516
sg72
I25186
sg39
I68442
sg73
I321
sg40
I209148
sg74
I112
sg41
I18648
sg75
I106587
sg42
I96983
sg76
I13291
sg43
I131833
sg77
I10659
sg44
I27289
sg78
I29601
sg45
I683
sg46
I1922
stp544
Rp545
tp546
a(g33
g3
(g4
g5
(dp547
g221
I8
sS'2'
p548
I1
sS'5'
p549
I1
sS'7'
p550
I1
sS'A'
p551
I120
sS'C'
p552
I35
sg20
I69
sg54
I15
sg373
I45
sg435
I29
sS'F'
p553
I24
sg436
I277
sg23
I86
sS'K'
p554
I6
sS'J'
p555
I21
sS'M'
p556
I89
sg25
I43
sS'O'
p557
I34
sg314
I68
sS'Q'
p558
I1
sS'P'
p559
I29
sS'S'
p560
I79
sg316
I15
sg234
I7
sg29
I160
sg63
I131
sg253
I4
sS'Y'
p561
I90
sg542
I1
sg66
I62
sS'c'
p562
I25
sg34
I35
sS'e'
p563
I36
sS'd'
p564
I17
sS'g'
p565
I19
sS'f'
p566
I28
sg479
I28
sg237
I27
sS'k'
p567
I6
sS'j'
p568
I2
sS'm'
p569
I35
sS'l'
p570
I30
sg202
I30
sg335
I23
sg420
I2
sS'p'
p571
I26
sS's'
p572
I35
sg42
I14
sS'u'
p573
I6
sg43
I86
sg77
I20
sS'v'
p574
I3
sS'y'
p575
I8
stp576
Rp577
tp578
a(g67
g3
(g4
g5
(dp579
g11
I3112
sg14
I453
sS'C'
p580
I6
sg217
I1
sS'D'
p581
I2
sS'G'
p582
I6
sg266
I1
sS'J'
p583
I1
sS'L'
p584
I297
sS'Q'
p585
I1
sg233
I1
sg541
I1
sg66
I36965
sg67
I5247
sg441
I1
sg68
I53682
sg35
I48
sS'f'
p586
I1
sg70
I12451
sg37
I55012
sg71
I19964
sg569
I7
sg39
I11769
sg73
I53407
sg40
I24
sg74
I520
sS'p'
p587
I56
sg75
I893
sg42
I13150
sg76
I9683
sg43
I19866
sg224
I7
sg44
I9
sg78
I1676
sS'z'
p588
I14
stp589
Rp590
tp591
a(g34
g3
(g4
g5
(dp592
g14
I258
sg66
I13420
sg11
I1069
sg562
I19
sg34
I1496
sg68
I57096
sg35
I95
sS'g'
p593
I4
sg134
I13
sg70
I6917
sg237
I48
sg38
I961
sg72
I286
sg39
I22127
sg73
I19567
sg335
I47
sg75
I3144
sg42
I12488
sg76
I19004
sg43
I1536
sS'w'
p594
I25
sS'v'
p595
I84
sg78
I13104
stp596
Rp597
tp598
a(g68
g3
(g4
g5
(dp599
g11
I484942
sg14
I24593
sg496
I1
sS'B'
p600
I3
sS'I'
p601
I1
sg541
I1
sS'W'
p602
I1
sg542
I35
sg66
I81780
sg106
I2
sg67
I28535
sg34
I1574
sg68
I47016
sg35
I141341
sg69
I8931
sg36
I14506
sg70
I18468
sg37
I3051
sg71
I1573
sg38
I400
sg72
I30951
sg39
I54918
sg73
I5232
sg40
I126429
sg74
I1629
sg41
I17165
sg75
I100515
sg42
I207918
sg76
I2557
sg43
I43547
sg77
I11710
sg44
I24394
sg78
I22126
sg45
I13228
sg46
I570
stp603
Rp604
tp605
a(g35
g3
(g4
g5
(dp606
g11
I305083
sg14
I15396
sg542
I7
sg66
I15073
sg106
I9
sg67
I68
sg34
I104
sg68
I64901
sg35
I5741
sg69
I2562
sg36
I632
sg70
I35056
sg37
I170
sg71
I161
sg38
I372
sg72
I1190
sg39
I5242
sg73
I26332
sg40
I2513
sS'1'
p607
I3
sg41
I44
sg75
I12810
sg42
I12622
sg76
I5147
sS'q'
p608
I50
sg77
I417
sg44
I1459
sg78
I5578
sS'z'
p609
I4
sg43
I158
stp610
Rp611
tp612
a(g69
g3
(g4
g5
(dp613
g14
I5225
sg542
I1
sg66
I16235
sg11
I76566
sS'c'
p614
I5
sg34
I20
sg68
I30861
sg35
I135
sg69
I3348
sg36
I13
sg70
I11058
sg37
I35868
sg72
I387
sg39
I8447
sg73
I15719
sg40
I4209
sS'p'
p615
I17
sg75
I6356
sg42
I15822
sg76
I6711
sg43
I1131
sg386
I43
sg78
I510
sg588
I10
stp616
Rp617
tp618
a(g36
g3
(g4
g5
(dp619
S'G'
p620
I1
sS'I'
p621
I1
sg14
I1797
sg66
I18936
sg11
I97230
sS'c'
p622
I11
sS'b'
p623
I31
sg68
I22839
sg133
I1
sg565
I7
sg36
I11321
sg70
I21658
sS'h'
p624
I4
sg383
I7
sg223
I13
sS'm'
p625
I11
sg39
I7404
sg73
I44090
sg274
I18
sS'p'
p626
I1
sg75
I473
sg42
I19355
sg76
I10264
sg43
I10566
sS'w'
p627
I52
sg320
I1
sg78
I427
sg205
I1
sS'z'
p628
I1
stp629
Rp630
tp631
a(g70
g3
(g4
g5
(dp632
g11
I1124
sg14
I217
sg435
I1
sg156
I1
sS'Y'
p633
I1
sg542
I6
sg66
I10956
sg67
I43705
sg34
I6842
sg68
I33780
sg35
I39516
sg69
I26982
sg36
I16966
sg70
I28
sg37
I72
sg71
I7675
sg568
I11
sg72
I41356
sg39
I43546
sg73
I33840
sg40
I226903
sg74
I355
sg41
I5896
sg75
I107970
sg42
I33525
sg76
I2160
sg43
I104956
sg627
I41
sg44
I16450
sS'y'
p634
I2
sg45
I2221
sg46
I2893
stp635
Rp636
tp637
a(g37
g3
(g4
g5
(dp638
g11
I67848
sg14
I3009
sg542
I5
sg66
I131379
sg543
I2
sS'c'
p639
I81
sg34
I433
sg68
I377382
sg35
I210
sS'g'
p640
I5
sg36
I438
sg70
I121267
sg237
I20
sg200
I103
sg72
I1056
sg39
I861
sg73
I59651
sg40
I790
sS'q'
p641
I35
sg571
I18
sg75
I1322
sg42
I9309
sg76
I9266
sg43
I24331
sg77
I366
sg259
I4
sg78
I4113
sS'z'
p642
I1
stp643
Rp644
tp645
a(g71
g3
(g4
g5
(dp646
g14
I2529
sg66
I933
sg11
I20618
sg562
I72
sS'b'
p647
I42
sg68
I33412
sg564
I31
sg382
I65
sg36
I319
sg70
I12938
sg37
I845
sg200
I220
sg223
I22
sg72
I117
sg39
I2644
sg73
I888
sg40
I10452
sS'1'
p648
I4
sS'p'
p649
I12
sg75
I4218
sg42
I81
sg76
I80
sg420
I1
sg77
I322
sS'v'
p650
I13
sg78
I834
sg241
I2
sS't'
p651
I19
stp652
Rp653
tp654
a(g38
g3
(g4
g5
(dp655
g66
I654
sg68
I3885
sg479
I111
sg76
I4386
sg73
I3175
sg302
I3
stp656
Rp657
tp658
a(g72
g3
(g4
g5
(dp659
g14
I6291
sg542
I2
sg66
I43564
sg11
I37028
sg352
I88
sg34
I7301
sg68
I79706
sg35
I29
sg69
I12
sg36
I719
sg70
I24268
sg222
I10
sg71
I27
sg72
I5467
sg39
I530
sg73
I31067
sg40
I1144
sg84
I4
sg41
I14998
sg75
I8639
sg42
I191
sg76
I9846
sg43
I187
sg258
I23
sg595
I4
sg78
I16851
stp660
Rp661
tp662
a(g39
g3
(g4
g5
(dp663
g11
I54544
sg14
I4262
sS'1'
p664
I4
sg305
I2
sS'O'
p665
I1
sg541
I1
sg542
I7
sg66
I40997
sg67
I802
sg34
I449
sg68
I89002
sg35
I36274
sg69
I446
sg36
I11505
sg70
I52588
sg237
I35
sg71
I3647
sS'j'
p666
I1112
sg72
I2543
sg39
I71747
sg73
I42613
sg40
I470
sg203
I7
sg41
I1951
sg75
I9570
sg42
I1515
sg76
I8605
sg43
I7899
sg77
I1961
sg44
I3044
sg78
I42335
sg205
I1
sg46
I44
stp667
Rp668
tp669
a(g73
g3
(g4
g5
(dp670
g11
I119814
sg14
I2177
sg376
I1
sg193
I1
sg633
I1
sg542
I12
sg66
I8137
sg543
I1
sg67
I9653
sg34
I5607
sg68
I3162
sg35
I16523
sg69
I5692
sg36
I92331
sg70
I11085
sg37
I926
sg71
I14156
sg38
I848
sg72
I52293
sg39
I31199
sg73
I38365
sg40
I130029
sg74
I177
sg41
I15599
sg75
I27778
sg42
I102568
sg76
I129045
sg43
I48448
sg77
I48038
sg44
I20232
sg78
I3653
sg45
I908
sg46
I481
stp671
Rp672
tp673
a(g40
g3
(g4
g5
(dp674
g11
I173135
sg14
I11394
sg607
I1
sg601
I1
sg231
I3
sg541
I1
sg542
I9
sg66
I17480
sg67
I32417
sg34
I364
sg68
I74982
sg35
I163833
sg69
I116776
sg36
I3878
sg70
I24198
sg37
I1061
sg71
I7889
sg38
I1045
sg72
I535
sg39
I7837
sg73
I56205
sg40
I7390
sg74
I974
sg41
I332
sg75
I29882
sg42
I574
sg76
I4701
sg43
I73319
sg77
I600
sg44
I3451
sg78
I9285
sg45
I548
sg46
I160
stp675
Rp676
tp677
a(g74
g3
(g4
g5
(dp678
g197
I1
sg499
I2
sg76
I11699
sg302
I3
stp679
Rp680
tp681
a(g41
g3
(g4
g5
(dp682
g14
I1649
sg542
I1
sg66
I23583
sg11
I13158
sg562
I135
sg34
I72
sg68
I38393
sg564
I9
sg293
I14
sg566
I105
sg70
I12481
sg37
I3960
sg238
I232
sS'j'
p683
I1
sg72
I203
sg39
I19619
sg73
I24458
sg335
I78
sg41
I12948
sg75
I5141
sg42
I25391
sg76
I7011
sg43
I8249
sg77
I173
sg78
I1536
sg642
I3
stp684
Rp685
tp686
a(g75
g3
(g4
g5
(dp687
g14
I19939
sg542
I19
sg66
I35550
sg11
I245570
sg67
I10756
sg34
I1012
sg68
I89510
sg35
I357
sg69
I264
sg36
I1159
sg70
I39713
sg37
I45632
sg71
I6816
sS'j'
p688
I15
sg72
I5262
sg39
I7516
sg73
I39356
sg40
I2682
sS'1'
p689
I8
sg41
I16248
sg75
I38377
sg42
I94
sg76
I20969
sg74
I997
sg77
I4758
sg44
I88
sg78
I1977
sg212
I7
sg43
I93807
stp690
Rp691
tp692
a(g42
g3
(g4
g5
(dp693
g11
I125586
sg14
I12859
sS'A'
p694
I1
sg583
I2
sS'N'
p695
I2
sg542
I7
sg66
I45879
sg67
I7600
sg34
I2300
sg68
I174148
sg35
I22175
sg69
I6277
sg36
I3052
sg70
I58920
sg37
I1376
sg71
I6408
sg38
I16
sg72
I12092
sg39
I8196
sg73
I64013
sg40
I15518
sg74
I211
sg41
I3120
sg75
I35766
sg42
I16820
sg76
I12151
sg43
I28853
sg77
I1447
sg44
I4502
sg78
I24813
sg296
I3
sS'z'
p696
I122
stp697
Rp698
tp699
a(g76
g3
(g4
g5
(dp700
g11
I17582
sg14
I1101
sg488
I1
sS'S'
p701
I6
sg149
I1
sg542
I3
sg66
I6981
sg67
I13334
sg34
I5961
sg68
I10790
sg35
I7285
sg69
I18884
sg36
I2110
sg70
I9475
sg37
I39
sg71
I487
sg201
I75
sg72
I8722
sg39
I37014
sg73
I674
sg40
I41582
sg74
I58
sg41
I16850
sg75
I44786
sg42
I49664
sg76
I17
sg43
I52689
sg386
I21
sg44
I407
sg204
I218
sg45
I527
sg46
I870
stp702
Rp703
tp704
a(g43
g3
(g4
g5
(dp705
g11
I247631
sg14
I15032
sg51
I25
sg621
I2
sS'N'
p706
I1
sg542
I18
sg66
I36784
sg106
I1
sg67
I4592
sg34
I143
sg68
I92437
sS'd'
p707
I26
sg382
I63
sg36
I1191
sg70
I66568
sg37
I367219
sg443
I36
sg568
I2
sg72
I1187
sg39
I15994
sg73
I113914
sg40
I982
sg41
I198
sg75
I20468
sg42
I30736
sg76
I17656
sg43
I23959
sg77
I7677
sg320
I9
sg78
I14784
sg45
I26
sg46
I596
stp708
Rp709
tp710
a(g77
g3
(g4
g5
(dp711
g14
I2091
sg542
I5
sg66
I67771
sg11
I25231
sg67
I57
sg647
I95
sg68
I42107
sg35
I1074
sg382
I225
sg36
I279
sg70
I47238
sg37
I51291
sg71
I229
sS'j'
p712
I1
sS'm'
p713
I15
sg39
I1836
sg73
I26977
sg40
I11197
sg240
I19
sg75
I3523
sg42
I2922
sg367
I123
sg445
I99
sS'w'
p714
I6
sg78
I250
sg588
I2
stp715
Rp716
tp717
a(g44
g3
(g4
g5
(dp718
g502
I532
sg542
I2
sg66
I7933
sg221
I1535
sg68
I84389
sS'g'
p719
I3
sg70
I16748
sg383
I8
sg201
I1
sg72
I22
sg334
I201
sg73
I5927
sg83
I323
sg127
I262
sg42
I596
sg76
I230
sS't'
p720
I2
sg224
I1
sg574
I16
sg78
I703
stp721
Rp722
tp723
a(g78
g3
(g4
g5
(dp724
g11
I120862
sg14
I10893
sg542
I5
sg66
I2592
sg106
I1
sg67
I294
sg34
I583
sg68
I11265
sg35
I229
sg69
I124
sg566
I186
sg70
I4281
sg37
I80
sg443
I76
sg72
I755
sg39
I785
sg73
I27102
sg40
I223
sg41
I424
sg75
I8342
sg42
I707
sg573
I59
sg43
I2766
sg77
I414
sg595
I110
sg296
I8
sg46
I49
stp725
Rp726
tp727
a(g45
g3
(g4
g5
(dp728
g65
I4
sg66
I1467
sg11
I1546
sg67
I2809
sS'b'
p729
I3
sg68
I1520
sS'g'
p730
I1
sg566
I15
sg70
I1622
sg37
I339
sg142
I1
sg39
I14
sg73
I81
sg14
I262
sg47
I5
sg41
I4250
sg75
I5
sg76
I142
sg74
I62
sS'w'
p731
I5
sg78
I86
sg45
I30
sg43
I3298
stp732
Rp733
tp734
a(g46
g3
(g4
g5
(dp735
S'n'
p736
I1
sg66
I579
sg11
I370
sg34
I6
sg68
I3861
sg273
I20
sS'g'
p737
I12
sg70
I919
sg442
I106
sg443
I6
sS'm'
p738
I95
sg39
I399
sg73
I971
sg14
I158
sS's'
p739
I3
sg42
I2
sg76
I168
sS't'
p740
I2
sg136
I14
sg204
I184
sg46
I558
stp741
Rp742
tp743
aaS'\n\t\r~@#%^&*"\'/\\-+<>{}|$!:()[];?,='
p744
aI00
a.