(lp0
(lp1
(S'\x0c'
p2
ccopy_reg
_reconstructor
p3
(c__main__
CharCount
p4
c__builtin__
dict
p5
(dp6
S'f'
p7
I1
stp8
Rp9
tp10
a(S' '
p11
g3
(g4
g5
(dp12
S'\x0c'
p13
I49
sg11
I260717
sS'.'
p14
I2816
sS'1'
p15
I1485
sS'0'
p16
I9
sS'3'
p17
I284
sS'2'
p18
I613
sS'5'
p19
I147
sS'4'
p20
I200
sS'7'
p21
I122
sS'6'
p22
I170
sS'9'
p23
I91
sS'8'
p24
I82
sS'_'
p25
I197
sS'a'
p26
I311323
sS'`'
p27
I1808
sS'c'
p28
I102112
sS'b'
p29
I124079
sS'e'
p30
I52828
sS'd'
p31
I80754
sS'g'
p32
I50622
sS'f'
p33
I105692
sS'i'
p34
I173196
sS'h'
p35
I211242
sS'k'
p36
I16891
sS'j'
p37
I12364
sS'm'
p38
I117120
sS'l'
p39
I72492
sS'o'
p40
I168071
sS'n'
p41
I64502
sS'q'
p42
I6281
sS'p'
p43
I77927
sS's'
p44
I197626
sS'r'
p45
I60006
sS'u'
p46
I28951
sS't'
p47
I431087
sS'w'
p48
I199705
sS'v'
p49
I18902
sS'y'
p50
I31981
sS'x'
p51
I672
sS'z'
p52
I490
stp53
Rp54
tp55
a(g14
g3
(g4
g5
(dp56
g11
I87832
sS'.'
p57
I4176
sS'1'
p58
I1
sS'0'
p59
I11
sg17
I4
sg18
I17
sS'5'
p60
I1
sg20
I5
sg21
I2
sg22
I4
sg23
I7
sg24
I1
sS'_'
p61
I15
sS'a'
p62
I46
sS'`'
p63
I5
sg28
I40
sg29
I18
sg30
I56
sS'd'
p64
I8
sg32
I17
sS'f'
p65
I10
sS'i'
p66
I136
sS'h'
p67
I48
sS'k'
p68
I2
sS'j'
p69
I3
sg38
I74
sS'l'
p70
I10
sg40
I12
sg41
I21
sS'q'
p71
I2
sS'p'
p72
I8
sg44
I57
sS'r'
p73
I4
sg46
I23
sg47
I120
sg48
I38
sS'v'
p74
I8
sS'y'
p75
I15
sg51
I5
sg52
I9
stp76
Rp77
tp78
a(g15
g3
(g4
g5
(dp79
S'a'
p80
I1
sg11
I118
sg17
I158
sS'o'
p81
I1
sg14
I61
sg15
I197
sg59
I287
sg44
I45
sg18
I226
sg19
I212
sg20
I180
sg21
I214
sg22
I178
sg23
I127
sg24
I650
sg47
I25
stp82
Rp83
tp84
a(g59
g3
(g4
g5
(dp85
g51
I5
sg26
I7
sg11
I530
sS'i'
p86
I3
sS'h'
p87
I5
sS'm'
p88
I1
sg17
I15
sg14
I65
sg15
I29
sg59
I718
sS's'
p89
I7
sg18
I28
sg19
I43
sg20
I18
sg21
I26
sg22
I25
sg23
I35
sS'8'
p90
I21
sg47
I70
stp91
Rp92
tp93
a(g17
g3
(g4
g5
(dp94
g22
I32
sg18
I85
sg11
I96
sg64
I7
sS'f'
p95
I1
sS'i'
p96
I2
sg87
I2
sg88
I2
sg14
I46
sg15
I62
sg59
I172
sg17
I51
sg45
I33
sg19
I43
sg20
I35
sg21
I40
sS'v'
p97
I1
sg23
I37
sg24
I32
sg47
I18
stp98
Rp99
tp100
a(g18
g3
(g4
g5
(dp101
g14
I66
sg11
I148
sS'd'
p102
I7
sS'm'
p103
I2
sS's'
p104
I1
sg41
I23
sg15
I123
sg59
I216
sg17
I108
sg18
I96
sg19
I133
sg20
I98
sg21
I89
sg22
I97
sg23
I70
sg24
I83
sg47
I18
stp105
Rp106
tp107
a(g19
g3
(g4
g5
(dp108
g11
I85
sg31
I1
sg14
I35
sg15
I20
sg59
I137
sg17
I21
sS'2'
p109
I30
sg19
I28
sg20
I26
sg21
I26
sg22
I19
sS'9'
p110
I15
sg24
I20
sS'y'
p111
I1
sg47
I67
stp112
Rp113
tp114
a(g20
g3
(g4
g5
(dp115
g11
I74
sg14
I39
sg15
I22
sg59
I79
sg17
I29
sg18
I23
sg19
I33
sS'4'
p116
I18
sg21
I33
sg22
I21
sg23
I20
sS'x'
p117
I1
sg24
I38
sg47
I71
stp118
Rp119
tp120
a(g21
g3
(g4
g5
(dp121
g11
I67
sg87
I1
sS'm'
p122
I2
sg17
I14
sg14
I44
sg15
I23
sg59
I37
sS's'
p123
I1
sg18
I40
sg19
I18
sg47
I41
sg21
I28
sg22
I20
sg23
I31
sg24
I35
sg20
I12
stp124
Rp125
tp126
a(g22
g3
(g4
g5
(dp127
g11
I62
sg88
I3
sg14
I31
sg15
I24
sg59
I82
sg17
I18
sg18
I34
sS'5'
p128
I28
sg20
I23
sg21
I27
sg22
I29
sg23
I21
sg24
I24
sS'q'
p129
I1
sg47
I67
stp130
Rp131
tp132
a(g23
g3
(g4
g5
(dp133
g11
I61
sS'd'
p134
I1
sg14
I25
sg15
I17
sg59
I38
sg17
I58
sg18
I24
sS'5'
p135
I13
sg20
I20
sg21
I29
sg22
I16
sg23
I18
sg90
I8
sg47
I39
stp136
Rp137
tp138
a(g24
g3
(g4
g5
(dp139
g11
I63
sS'h'
p140
I2
sg88
I1
sS'l'
p141
I2
sg14
I20
sg15
I181
sg59
I129
sg17
I127
sg18
I80
sg19
I21
sg47
I55
sg21
I19
sg22
I59
sg23
I34
sS'8'
p142
I11
sS'4'
p143
I45
stp144
Rp145
tp146
a(g25
g3
(g4
g5
(dp147
S'.'
p148
I30
sS'_'
p149
I739
sS'a'
p150
I20
sg11
I113
sS'c'
p151
I9
sS'b'
p152
I2
sS'e'
p153
I7
sS'd'
p154
I6
sS'f'
p155
I11
sS'i'
p156
I52
sg87
I6
sg88
I11
sS'l'
p157
I7
sS'o'
p158
I5
sS'n'
p159
I16
sS'p'
p160
I7
sS's'
p161
I11
sS'r'
p162
I2
sS'u'
p163
I4
sS't'
p164
I19
sS'w'
p165
I7
sS'v'
p166
I4
sS'y'
p167
I2
sg51
I4
sS'z'
p168
I1
stp169
Rp170
tp171
a(g26
g3
(g4
g5
(dp172
g11
I67465
sg14
I1510
sS'1'
p173
I4
sS'3'
p174
I1
sS'_'
p175
I8
sg26
I111
sS'`'
p176
I8
sg28
I35884
sg29
I18988
sg30
I784
sg31
I57333
sg32
I18233
sg33
I7976
sg34
I47759
sg35
I1913
sg36
I14254
sg37
I524
sg38
I26511
sg39
I71159
sg40
I459
sg41
I219874
sg42
I117
sg43
I20049
sg44
I109010
sg45
I99056
sg46
I14025
sg47
I134372
sg48
I10722
sg49
I27418
sg50
I29728
sg51
I690
sg52
I1954
stp177
Rp178
tp179
a(g27
g3
(g4
g5
(dp180
S'7'
p181
I1
sS'2'
p182
I1
sg175
I1
sg26
I182
sS' '
p183
I8
sS'c'
p184
I60
sg29
I104
sg30
I51
sS'd'
p185
I62
sS'g'
p186
I48
sS'f'
p187
I52
sg156
I305
sg35
I113
sS'k'
p188
I12
sS'j'
p189
I23
sS'm'
p190
I124
sg39
I73
sS'o'
p191
I64
sS'n'
p192
I91
sS'q'
p193
I3
sS'p'
p194
I55
sS's'
p195
I114
sg45
I29
sS'5'
p196
I1
sg47
I246
sg48
I151
sS'v'
p197
I7
sS'y'
p198
I98
sS'u'
p199
I13
stp200
Rp201
tp202
a(g28
g3
(g4
g5
(dp203
g14
I475
sg26
I39698
sg11
I3165
sg28
I5273
sS'b'
p204
I2
sg30
I54118
sg31
I64
sS'g'
p205
I6
sS'f'
p206
I2
sg34
I12788
sg35
I59282
sg36
I20012
sS'j'
p207
I1
sS'm'
p208
I7
sg39
I12551
sg40
I58111
sg41
I24
sg42
I521
sS'p'
p209
I62
sg44
I901
sg45
I13679
sg46
I9914
sg47
I19984
sS'w'
p210
I7
sg49
I9
sg50
I1739
sS'z'
p211
I36
stp212
Rp213
tp214
a(g29
g3
(g4
g5
(dp215
g14
I277
sg26
I15836
sg11
I1092
sg28
I56
sg29
I1501
sg30
I60468
sg31
I96
sS'g'
p216
I4
sg95
I13
sg34
I7869
sS'h'
p217
I135
sS'k'
p218
I351
sg37
I966
sg38
I291
sg39
I22666
sg40
I21824
sg192
I47
sg44
I3166
sg45
I13423
sg46
I25848
sg47
I1536
sS'w'
p219
I28
sS'v'
p220
I84
sg50
I13814
sS'x'
p221
I3
stp222
Rp223
tp224
a(g30
g3
(g4
g5
(dp225
g11
I486070
sg14
I24779
sg175
I35
sg26
I82345
sg63
I2
sg28
I28722
sg29
I1606
sg30
I47132
sg31
I141599
sg32
I9022
sg33
I14549
sg34
I18601
sg35
I3142
sg36
I1587
sg37
I402
sg38
I32421
sg39
I55276
sg40
I5253
sg41
I128156
sg42
I1663
sg43
I17382
sg44
I100992
sg45
I209688
sg46
I2886
sg47
I43878
sg48
I11791
sg49
I25558
sg50
I22234
sg51
I13582
sg52
I575
stp226
Rp227
tp228
a(g31
g3
(g4
g5
(dp229
g11
I305424
sg14
I15457
sg175
I7
sg26
I16044
sg63
I9
sg28
I69
sg29
I104
sg30
I67093
sg31
I5747
sg32
I2570
sg33
I637
sg34
I35966
sg35
I170
sg36
I161
sg37
I377
sg38
I1322
sg39
I5243
sg40
I28802
sg41
I2530
sS'1'
p230
I3
sg43
I45
sg44
I12853
sg45
I13259
sg46
I5902
sS'q'
p231
I50
sg48
I420
sg49
I1464
sg50
I5603
sS'z'
p232
I4
sg47
I158
stp233
Rp234
tp235
a(g32
g3
(g4
g5
(dp236
g14
I5237
sg175
I1
sg26
I16955
sg11
I76699
sS'c'
p237
I5
sg29
I20
sg30
I31962
sg31
I139
sg32
I3372
sg33
I14
sg34
I11607
sg35
I36178
sg38
I391
sg39
I8657
sg40
I18469
sg41
I4253
sg72
I17
sg44
I6366
sg45
I16937
sg46
I7574
sg47
I1135
sS'w'
p238
I44
sg50
I513
sg211
I12
stp239
Rp240
tp241
a(g33
g3
(g4
g5
(dp242
g14
I1810
sg26
I21238
sg11
I97540
sS'c'
p243
I11
sg204
I31
sg30
I23278
sg64
I1
sS'g'
p244
I8
sg33
I11343
sg34
I22648
sS'h'
p245
I4
sg218
I7
sg207
I14
sS'm'
p246
I11
sg39
I7741
sg40
I46956
sS'n'
p247
I18
sS'p'
p248
I1
sg44
I474
sg45
I23791
sg46
I10437
sg47
I10616
sS'w'
p249
I52
sS'v'
p250
I1
sg50
I428
sS'x'
p251
I1
sS'z'
p252
I1
stp253
Rp254
tp255
a(g34
g3
(g4
g5
(dp256
g14
I816
sS'_'
p257
I44
sg26
I11043
sg11
I40038
sg28
I44037
sg29
I6899
sg30
I33887
sg31
I39607
sg32
I27144
sg33
I18748
sg34
I1067
sg35
I72
sg36
I7686
sg189
I11
sg38
I41626
sg39
I43896
sg40
I33982
sg41
I231594
sg42
I357
sg43
I5948
sg44
I109131
sg45
I33741
sg46
I2187
sg47
I112766
sg249
I41
sg49
I16808
sS'y'
p258
I5
sg51
I2357
sg52
I2902
stp259
Rp260
tp261
a(g35
g3
(g4
g5
(dp262
g11
I67992
sg14
I3169
sS'1'
p263
I165
sS'3'
p264
I32
sS'2'
p265
I66
sS'5'
p266
I17
sS'4'
p267
I17
sS'7'
p268
I17
sS'6'
p269
I17
sS'9'
p270
I17
sS'8'
p271
I17
sg175
I5
sg26
I135220
sg176
I2
sg184
I81
sg29
I434
sg30
I391664
sg31
I210
sS'g'
p272
I5
sg33
I440
sg34
I123947
sg217
I21
sS'k'
p273
I103
sg38
I1074
sg39
I861
sg40
I62644
sg41
I800
sS'q'
p274
I37
sg194
I18
sg44
I1330
sg45
I9611
sg46
I9908
sg47
I24390
sg48
I366
sg250
I7
sg50
I4144
sS'z'
p275
I1
stp276
Rp277
tp278
a(g36
g3
(g4
g5
(dp279
g11
I20758
sg14
I2557
sS'1'
p280
I186
sg264
I20
sg265
I22
sg266
I23
sg267
I16
sg268
I14
sg269
I27
sg270
I24
sg271
I23
sg26
I1335
sS'c'
p281
I72
sS'b'
p282
I42
sg30
I33944
sS'd'
p283
I31
sg186
I65
sg33
I320
sg34
I13818
sg35
I951
sg273
I224
sg207
I22
sg38
I117
sg39
I2681
sg40
I1157
sg41
I10555
sg193
I1
sS'p'
p284
I12
sg44
I4233
sg45
I169
sg46
I743
sS't'
p285
I19
sg48
I327
sS'v'
p286
I13
sg50
I843
sS'z'
p287
I2
stp288
Rp289
tp290
a(g37
g3
(g4
g5
(dp291
g26
I1916
sS' '
p292
I1
sg30
I5574
sg64
I1
sg156
I361
sg40
I5847
sg14
I112
sg89
I1
sg46
I5859
stp293
Rp294
tp295
a(g38
g3
(g4
g5
(dp296
g14
I7351
sg175
I2
sg26
I51737
sg11
I37127
sg28
I417
sg29
I7342
sg30
I81380
sg31
I32
sg32
I18
sg33
I720
sg34
I26432
sS'h'
p297
I10
sg36
I27
sg38
I5489
sg39
I534
sg40
I35140
sg41
I1154
sg58
I4
sg43
I15043
sg44
I8662
sg45
I2669
sg46
I10358
sg47
I187
sS'w'
p298
I28
sg220
I4
sg50
I18300
stp299
Rp300
tp301
a(g39
g3
(g4
g5
(dp302
g11
I54662
sg14
I4299
sg15
I7
sS'3'
p303
I2
sg18
I8
sg19
I2
sS'4'
p304
I2
sg22
I1
sg24
I2
sg175
I7
sg26
I43603
sg28
I813
sg29
I450
sg30
I91118
sg31
I36322
sg32
I453
sg33
I11528
sg34
I54105
sg217
I104
sg36
I3671
sS'j'
p305
I1119
sg38
I2553
sg39
I71888
sg40
I44808
sg41
I472
sS'q'
p306
I7
sg43
I1955
sg44
I9601
sg45
I1521
sg46
I9268
sg47
I7909
sg48
I1963
sg49
I3052
sg50
I42400
sg251
I1
sg52
I44
stp307
Rp308
tp309
a(g40
g3
(g4
g5
(dp310
g11
I120271
sg14
I2207
sg175
I12
sg26
I8151
sg176
I1
sg28
I9920
sg29
I5740
sg30
I3186
sg31
I16597
sg32
I5742
sg33
I93587
sg34
I11110
sg35
I2137
sg36
I14279
sg37
I899
sg38
I52505
sg39
I31505
sg40
I38599
sg41
I133436
sg42
I177
sg43
I15773
sg44
I27875
sg45
I103508
sg46
I129834
sg47
I48695
sg48
I48131
sg49
I20323
sg50
I3664
sg51
I918
sg52
I559
stp311
Rp312
tp313
a(g41
g3
(g4
g5
(dp314
g14
I11489
sg175
I9
sg26
I20658
sg11
I173599
sg28
I32520
sg29
I413
sg30
I77101
sg31
I164156
sg32
I116987
sg33
I3883
sg34
I25555
sg35
I1064
sg36
I7910
sg37
I1056
sg38
I535
sg39
I7844
sg40
I61159
sg41
I7418
sg230
I1
sg43
I334
sg44
I29981
sg45
I588
sg46
I4782
sg42
I975
sg48
I605
sg49
I3467
sg50
I9311
sg51
I548
sg52
I160
sg47
I73673
stp315
Rp316
tp317
a(g42
g3
(g4
g5
(dp318
S'a'
p319
I1
sS' '
p320
I4
sS'c'
p321
I1
sg46
I12221
sS'.'
p322
I6
stp323
Rp324
tp325
a(g43
g3
(g4
g5
(dp326
g265
I13
sg14
I1718
sg175
I1
sg26
I25966
sg11
I13193
sg281
I135
sg29
I72
sg30
I40176
sg283
I9
sS'g'
p327
I23
sg187
I153
sg34
I14827
sg35
I4389
sS'k'
p328
I234
sS'j'
p329
I1
sg38
I210
sg39
I20188
sg40
I25590
sg192
I78
sg263
I17
sg43
I12973
sg44
I5216
sg45
I29775
sg46
I7348
sg47
I9386
sg48
I176
sg50
I1582
sg275
I3
stp330
Rp331
tp332
a(g44
g3
(g4
g5
(dp333
g14
I20041
sg175
I19
sg26
I37596
sg11
I246220
sg28
I11967
sg29
I1013
sg30
I91125
sg31
I361
sg32
I266
sg33
I1164
sg34
I40774
sg35
I50079
sg36
I6864
sS'j'
p334
I15
sg38
I5615
sg39
I7668
sg40
I42924
sg41
I2795
sS'1'
p335
I8
sg43
I17000
sg44
I38501
sg45
I97
sg46
I22006
sg42
I1040
sg48
I4890
sg49
I93
sg50
I2096
sS'z'
p336
I23
sg47
I95542
stp337
Rp338
tp339
a(g45
g3
(g4
g5
(dp340
g14
I13255
sg175
I7
sg26
I46427
sg11
I127053
sg28
I7624
sg29
I2314
sg30
I175612
sg31
I22277
sg32
I6341
sg33
I3055
sg34
I59422
sg35
I1430
sg36
I6461
sg37
I18
sg38
I12119
sg39
I8225
sg40
I66316
sg41
I15589
sg42
I213
sg43
I3138
sg44
I35863
sg45
I16885
sg46
I14086
sg47
I29072
sg48
I1456
sg49
I4516
sg50
I24934
sS'x'
p341
I4
sS'z'
p342
I122
stp343
Rp344
tp345
a(g46
g3
(g4
g5
(dp346
g14
I1108
sg175
I3
sg26
I6998
sg11
I17668
sg28
I13382
sg29
I5995
sg30
I10846
sg31
I7330
sg32
I18916
sg33
I2117
sg34
I9494
sg35
I71
sg36
I495
sS'j'
p347
I76
sg38
I8789
sg39
I37105
sg40
I675
sg41
I42451
sg42
I58
sg43
I17117
sg44
I44925
sg45
I49942
sg46
I18
sg47
I52897
sg238
I21
sg49
I421
sg198
I218
sg51
I531
sg52
I873
stp348
Rp349
tp350
a(g47
g3
(g4
g5
(dp351
g11
I248356
sg23
I25
sg14
I15193
sg175
I18
sg26
I37514
sg63
I1
sg28
I4605
sg29
I145
sg30
I94750
sg185
I26
sg186
I63
sg33
I1195
sg34
I67838
sg35
I401273
sS'k'
p352
I36
sg189
I2
sg38
I1209
sg39
I16021
sg40
I116836
sg41
I992
sg43
I216
sg44
I20629
sg45
I31330
sg46
I18157
sg47
I24064
sg48
I8201
sg250
I20
sg50
I14965
sg51
I26
sg52
I599
stp353
Rp354
tp355
a(g48
g3
(g4
g5
(dp356
g14
I2114
sg175
I5
sg26
I68818
sg11
I25274
sg28
I57
sg282
I95
sg30
I46693
sg31
I1077
sg186
I227
sg33
I279
sg34
I48960
sg35
I60738
sg36
I229
sS'j'
p357
I1
sg190
I15
sg39
I1839
sg40
I28569
sg41
I11208
sS'p'
p358
I19
sg44
I3528
sg45
I2977
sg199
I140
sS't'
p359
I99
sS'w'
p360
I6
sg50
I255
sg211
I2
stp361
Rp362
tp363
a(g49
g3
(g4
g5
(dp364
g57
I469
sg175
I2
sg26
I10019
sg292
I1557
sS'b'
p365
I1
sg30
I85206
sS'g'
p366
I3
sg34
I17712
sg218
I8
sg347
I1
sg38
I22
sg70
I220
sg40
I6145
sS'n'
p367
I532
sg89
I262
sg45
I614
sg46
I234
sS't'
p368
I2
sg210
I1
sg197
I16
sg50
I733
stp369
Rp370
tp371
a(g50
g3
(g4
g5
(dp372
g11
I121106
sg14
I10914
sg175
I5
sg26
I2703
sg63
I1
sg28
I296
sg29
I585
sg30
I13181
sg31
I230
sg32
I125
sg187
I188
sg34
I4302
sg35
I80
sg352
I76
sg38
I757
sg39
I788
sg40
I31423
sg41
I223
sg43
I432
sg44
I8367
sg45
I710
sS'u'
p373
I87
sg47
I2768
sg48
I414
sg220
I117
sg341
I8
sg52
I49
stp374
Rp375
tp376
a(g51
g3
(g4
g5
(dp377
g25
I4
sg26
I1468
sg11
I1565
sg28
I2813
sS'b'
p378
I3
sg30
I1524
sS'g'
p379
I1
sg187
I15
sg34
I1956
sg35
I339
sg103
I1
sg39
I14
sg40
I81
sg14
I330
sg15
I6
sg43
I4267
sg44
I5
sg18
I1
sg46
I174
sg42
I62
sS'w'
p380
I5
sg49
I236
sg50
I86
sg51
I197
sg47
I3364
stp381
Rp382
tp383
a(g52
g3
(g4
g5
(dp384
g14
I159
sg26
I618
sg11
I372
sg29
I6
sg30
I3991
sS'd'
p385
I27
sS'g'
p386
I12
sg34
I947
sS'h'
p387
I155
sg352
I6
sS'm'
p388
I95
sg39
I399
sg40
I995
sS'n'
p389
I18
sS's'
p390
I4
sg45
I2
sg46
I177
sS't'
p391
I2
sg210
I1
sg97
I14
sg198
I184
sg52
I559
stp392
Rp393
tp394
aaS'\n\t\r~@#%^&*"\'/\\-+<>{}|$!:()[];?,='
p395
aI01
a.