(lp0
(lp1
(S'.'
p2
ccopy_reg
_reconstructor
p3
(c__main__
CharCount
p4
c__builtin__
dict
p5
(dp6
S'1'
p7
I229
sS'0'
p8
I2
sS'3'
p9
I31
sS'2'
p10
I1
sS'5'
p11
I19
sS'4'
p12
I1
sS'6'
p13
I2
sS'9'
p14
I1
sS'a'
p15
I21240
sS'c'
p16
I621728
sS'b'
p17
I39893
sS'e'
p18
I21232
sS'd'
p19
I30773
sS'g'
p20
I16779
sS'f'
p21
I15506
sS'i'
p22
I58075
sS'h'
p23
I5531
sS'k'
p24
I8111
sS'j'
p25
I22368
sS'm'
p26
I12834
sS'l'
p27
I5090
sS'o'
p28
I50088
sS'n'
p29
I64829
sS'q'
p30
I345
sS'p'
p31
I20593
sS's'
p32
I11504
sS'r'
p33
I50526
sS'u'
p34
I26670
sS't'
p35
I22974
sS'w'
p36
I4969
sS'v'
p37
I5083
sS'y'
p38
I67
sS'x'
p39
I2480
sS'z'
p40
I4401
stp41
Rp42
tp43
a(g7
g3
(g4
g5
(dp44
g2
I4628
sg7
I51615
sg8
I53763
sg9
I50773
sg10
I52330
sg11
I51544
sg12
I50732
sS'7'
p45
I50616
sg13
I51332
sg14
I50787
sS'8'
p46
I51145
sS'_'
p47
I8
sg15
I1296
sg16
I339
sg17
I294
sg18
I142
sg19
I276
sg20
I179
sg21
I182
sg22
I78
sg23
I151
sg24
I137
sg25
I105
sg26
I242
sg27
I111
sg28
I84
sg29
I140
sg30
I36
sg31
I219
sg32
I483
sg33
I102
sg34
I66
sg35
I230
sg36
I156
sg37
I78
sg38
I60
sg39
I93
sg40
I66
stp48
Rp49
tp50
a(g8
g3
(g4
g5
(dp51
g2
I4225
sg7
I41930
sg8
I42899
sg9
I39256
sg10
I39543
sg11
I39345
sg12
I39244
sg45
I39401
sg13
I39200
sg14
I39279
sg46
I39367
sg47
I17
sg15
I574
sg16
I261
sg17
I343
sg18
I118
sg19
I275
sg20
I152
sg21
I190
sg22
I83
sg23
I106
sg24
I146
sg25
I61
sg26
I249
sg27
I106
sg28
I70
sg29
I126
sg30
I24
sg31
I282
sg32
I350
sg33
I150
sg34
I40
sg35
I195
sg36
I106
sg37
I83
sg38
I66
sg39
I87
sg40
I45
stp52
Rp53
tp54
a(g9
g3
(g4
g5
(dp55
g2
I3397
sg7
I50504
sg8
I50766
sg9
I50626
sg10
I50444
sg11
I50373
sg12
I50381
sg45
I50338
sg13
I52069
sg14
I50324
sg46
I50334
sg47
I9
sg15
I480
sg16
I335
sg17
I283
sg18
I156
sg19
I1009
sg20
I236
sg21
I153
sg22
I117
sg23
I129
sg24
I141
sg25
I60
sg26
I267
sg27
I181
sg28
I85
sg29
I151
sg30
I40
sg31
I214
sg32
I368
sg33
I215
sg34
I36
sg35
I194
sg36
I131
sg37
I67
sg38
I50
sg39
I105
sg40
I53
stp56
Rp57
tp58
a(g10
g3
(g4
g5
(dp59
g2
I3523
sg7
I51132
sg8
I53066
sg9
I51509
sg10
I50618
sg11
I50527
sg12
I55166
sg45
I50294
sg13
I50360
sg14
I50296
sg46
I50345
sg47
I7
sg15
I367
sg16
I600
sg17
I658
sg18
I214
sg19
I407
sg20
I333
sg21
I243
sg22
I165
sg23
I182
sg24
I211
sg25
I74
sg26
I411
sg27
I174
sg28
I157
sg29
I180
sg30
I24
sg31
I373
sg32
I438
sg33
I154
sg34
I223
sg35
I280
sg36
I197
sg37
I77
sg38
I97
sg39
I86
sg40
I107
stp60
Rp61
tp62
a(g11
g3
(g4
g5
(dp63
g2
I3484
sg7
I50771
sg8
I50793
sg9
I50266
sg10
I50594
sg11
I50641
sg12
I50281
sg45
I50264
sg13
I50417
sg14
I50328
sg46
I50364
sg47
I16
sg15
I225
sg16
I217
sg17
I169
sg18
I115
sg19
I203
sg20
I112
sg21
I118
sg22
I135
sg23
I97
sg24
I79
sg25
I36
sg26
I151
sg27
I78
sg28
I55
sg29
I77
sg30
I31
sg31
I133
sg32
I209
sg33
I61
sg34
I43
sg35
I128
sg36
I68
sg37
I29
sg38
I46
sg39
I54
sg40
I47
stp64
Rp65
tp66
a(g12
g3
(g4
g5
(dp67
g2
I5535
sg7
I50371
sg8
I50559
sg9
I50320
sg10
I50340
sg11
I50352
sg12
I50435
sg45
I50621
sg13
I50211
sg14
I50240
sg46
I50322
sg47
I10
sg15
I584
sg16
I375
sg17
I321
sg18
I268
sg19
I346
sg20
I257
sg21
I372
sg22
I189
sg23
I580
sg24
I235
sg25
I77
sg26
I369
sg27
I279
sg28
I110
sg29
I165
sg30
I16
sg31
I301
sg32
I503
sg33
I148
sg34
I865
sg35
I290
sg36
I211
sg37
I73
sg38
I340
sg39
I208
sg40
I28
stp68
Rp69
tp70
a(g45
g3
(g4
g5
(dp71
g2
I2448
sg7
I50311
sg8
I50368
sg9
I50297
sg10
I50404
sg11
I50265
sg12
I50252
sg45
I51008
sg13
I50258
sg14
I50212
sg46
I50383
sg47
I17
sg15
I244
sg16
I159
sg17
I178
sg18
I119
sg19
I179
sg20
I98
sg21
I103
sg22
I64
sg23
I80
sg24
I92
sg25
I44
sg26
I127
sg27
I93
sg28
I77
sg29
I71
sg30
I21
sg31
I97
sg32
I293
sg33
I71
sg34
I39
sg35
I125
sg36
I72
sg37
I40
sg38
I37
sg39
I51
sg40
I41
stp72
Rp73
tp74
a(g13
g3
(g4
g5
(dp75
g2
I1997
sg7
I50328
sg8
I51270
sg9
I50335
sg10
I50232
sg11
I51156
sg12
I50245
sg45
I50237
sg13
I50746
sg14
I50544
sg46
I50528
sg47
I11
sg15
I177
sg16
I136
sg17
I131
sg18
I79
sg19
I108
sg20
I61
sg21
I91
sg22
I37
sg23
I51
sg24
I98
sg25
I33
sg26
I246
sg27
I46
sg28
I38
sg29
I46
sg30
I16
sg31
I83
sg32
I118
sg33
I42
sg34
I23
sg35
I92
sg36
I50
sg37
I15
sg38
I33
sg39
I42
sg40
I19
stp76
Rp77
tp78
a(g14
g3
(g4
g5
(dp79
g2
I2271
sg7
I50650
sg8
I50548
sg9
I50266
sg10
I50344
sg11
I50295
sg12
I50312
sg45
I50313
sg13
I50368
sg14
I51264
sg46
I50464
sg47
I13
sg15
I212
sg16
I174
sg17
I167
sg18
I89
sg19
I159
sg20
I82
sg21
I88
sg22
I69
sg23
I49
sg24
I50
sg25
I162
sg26
I81
sg27
I63
sg28
I23
sg29
I61
sg30
I21
sg31
I68
sg32
I142
sg33
I53
sg34
I26
sg35
I116
sg36
I45
sg37
I29
sg38
I32
sg39
I59
sg40
I18
stp80
Rp81
tp82
a(g46
g3
(g4
g5
(dp83
g2
I3313
sg7
I50334
sg8
I50950
sg9
I50215
sg10
I50203
sg11
I50274
sg12
I50191
sg45
I50239
sg13
I50380
sg14
I50338
sg46
I51468
sg47
I14
sg15
I195
sg16
I164
sg17
I189
sg18
I67
sg19
I149
sg20
I89
sg21
I94
sg22
I56
sg23
I76
sg24
I53
sg25
I143
sg26
I99
sg27
I61
sg28
I40
sg29
I59
sg30
I19
sg31
I92
sg32
I179
sg33
I47
sg34
I29
sg35
I122
sg36
I46
sg37
I36
sg38
I44
sg39
I56
sg40
I20
stp84
Rp85
tp86
a(g47
g3
(g4
g5
(dp87
g8
I6
sg9
I10
sg15
I11
sg16
I14
sg17
I10
sg18
I7
sg19
I8
sg21
I10
sg23
I1
sg26
I2
sg27
I2
sg28
I1
sg29
I1
sg7
I9
sg31
I2
sg32
I2
sg10
I6
sg11
I11
sg12
I5
sg45
I7
sg13
I8
sg14
I6
sg46
I5
stp88
Rp89
tp90
a(g15
g3
(g4
g5
(dp91
g2
I79858
sg7
I731
sg8
I208
sg9
I524
sg10
I1128
sg11
I284
sg12
I396
sg45
I319
sg13
I221
sg14
I225
sg46
I209
sg47
I3
sg15
I6949
sg16
I44011
sg17
I25832
sg18
I7174
sg19
I45691
sg20
I28926
sg21
I13750
sg22
I34924
sg23
I9702
sg24
I19188
sg25
I4934
sg26
I50851
sg27
I98725
sg28
I7915
sg29
I125911
sg30
I1967
sg31
I30331
sg32
I63872
sg33
I115768
sg34
I27375
sg35
I74130
sg36
I7473
sg37
I18280
sg38
I21630
sg39
I4996
sg40
I13546
stp92
Rp93
tp94
a(g16
g3
(g4
g5
(dp95
g2
I24297
sg7
I306
sg8
I109
sg9
I201
sg10
I437
sg11
I109
sg12
I235
sg45
I96
sg13
I107
sg14
I120
sg46
I121
sg15
I59716
sg16
I8909
sg17
I2210
sg18
I38174
sg19
I2611
sg20
I1517
sg21
I1711
sg22
I25664
sg23
I59947
sg24
I22680
sg25
I686
sg26
I2924
sg27
I20597
sg28
I653404
sg29
I13052
sg30
I454
sg31
I2745
sg32
I9144
sg33
I15517
sg34
I12817
sg35
I22160
sg36
I937
sg37
I812
sg38
I4247
sg39
I341
sg40
I6119
stp96
Rp97
tp98
a(g17
g3
(g4
g5
(dp99
g2
I18675
sg7
I321
sg8
I128
sg9
I193
sg10
I579
sg11
I146
sg12
I245
sg45
I122
sg13
I96
sg14
I113
sg46
I126
sg47
I1
sg15
I37727
sg16
I3587
sg17
I4337
sg18
I35984
sg19
I3077
sg20
I2369
sg21
I970
sg22
I29597
sg23
I1838
sg24
I879
sg25
I744
sg26
I2591
sg27
I34811
sg28
I27960
sg29
I1521
sg30
I197
sg31
I1391
sg32
I8890
sg33
I34348
sg34
I17310
sg35
I2643
sg36
I862
sg37
I552
sg38
I5933
sg39
I251
sg40
I807
stp100
Rp101
tp102
a(g18
g3
(g4
g5
(dp103
g2
I119392
sg7
I819
sg8
I157
sg9
I631
sg10
I1405
sg11
I261
sg12
I753
sg45
I263
sg13
I228
sg14
I248
sg46
I252
sg47
I1
sg15
I50447
sg16
I45845
sg17
I27235
sg18
I31738
sg19
I48080
sg20
I17519
sg21
I11483
sg22
I16585
sg23
I8102
sg24
I11572
sg25
I4228
sg26
I33738
sg27
I60041
sg28
I15154
sg29
I91293
sg30
I1497
sg31
I20107
sg32
I116635
sg33
I143024
sg34
I14038
sg35
I112182
sg36
I21057
sg37
I15792
sg38
I10200
sg39
I20281
sg40
I5101
stp104
Rp105
tp106
a(g19
g3
(g4
g5
(dp107
g2
I34420
sg7
I419
sg8
I98
sg9
I287
sg10
I574
sg11
I158
sg12
I326
sg45
I126
sg13
I120
sg14
I133
sg46
I88
sg47
I1
sg15
I37746
sg16
I5108
sg17
I4511
sg18
I94063
sg19
I5154
sg20
I4459
sg21
I3424
sg22
I52309
sg23
I3299
sg24
I3623
sg25
I1296
sg26
I5216
sg27
I4657
sg28
I31368
sg29
I4038
sg30
I348
sg31
I6524
sg32
I16536
sg33
I13000
sg34
I18795
sg35
I3870
sg36
I3140
sg37
I3746
sg38
I5777
sg39
I565
sg40
I1703
stp108
Rp109
tp110
a(g20
g3
(g4
g5
(dp111
g2
I37223
sg7
I266
sg8
I88
sg9
I190
sg10
I372
sg11
I124
sg12
I218
sg45
I76
sg13
I64
sg14
I93
sg46
I96
sg15
I33640
sg16
I3094
sg17
I2686
sg18
I36104
sg19
I2689
sg20
I4169
sg21
I2408
sg22
I21117
sg23
I8889
sg24
I1027
sg25
I723
sg26
I2959
sg27
I9454
sg28
I30485
sg29
I7344
sg30
I308
sg31
I2527
sg32
I18835
sg33
I25752
sg34
I12773
sg35
I3556
sg36
I1404
sg37
I736
sg38
I3919
sg39
I381
sg40
I768
stp112
Rp113
tp114
a(g21
g3
(g4
g5
(dp115
g2
I6994
sg7
I275
sg8
I74
sg9
I103
sg10
I172
sg11
I97
sg12
I98
sg45
I61
sg13
I59
sg14
I49
sg46
I70
sg15
I19778
sg16
I2571
sg17
I1299
sg18
I17873
sg19
I899
sg20
I755
sg21
I8567
sg22
I27929
sg23
I731
sg24
I440
sg25
I428
sg26
I2317
sg27
I7898
sg28
I37536
sg29
I730
sg30
I107
sg31
I1047
sg32
I2682
sg33
I28345
sg34
I9905
sg35
I9150
sg36
I620
sg37
I278
sg38
I1761
sg39
I1044
sg40
I281
stp116
Rp117
tp118
a(g22
g3
(g4
g5
(dp119
g2
I34279
sg7
I322
sg8
I89
sg9
I220
sg10
I497
sg11
I121
sg12
I160
sg45
I125
sg13
I79
sg14
I118
sg46
I141
sg47
I1
sg15
I50427
sg16
I59389
sg17
I11082
sg18
I36598
sg19
I32154
sg20
I24230
sg21
I13981
sg22
I2787
sg23
I3112
sg24
I16106
sg25
I2979
sg26
I27595
sg27
I44310
sg28
I42779
sg29
I177507
sg30
I2896
sg31
I16460
sg32
I54636
sg33
I42812
sg34
I4012
sg35
I73434
sg36
I2364
sg37
I20832
sg38
I3460
sg39
I6275
sg40
I13072
stp120
Rp121
tp122
a(g23
g3
(g4
g5
(dp123
g2
I18625
sg7
I234
sg8
I73
sg9
I166
sg10
I341
sg11
I79
sg12
I173
sg45
I56
sg13
I54
sg14
I61
sg46
I75
sg47
I1
sg15
I44685
sg16
I2763
sg17
I2389
sg18
I49069
sg19
I3741
sg20
I1159
sg21
I1318
sg22
I32788
sg23
I1076
sg24
I3286
sg25
I566
sg26
I2970
sg27
I3148
sg28
I51765
sg29
I4525
sg30
I804
sg31
I2665
sg32
I4186
sg33
I6421
sg34
I13635
sg35
I8207
sg36
I1517
sg37
I771
sg38
I3752
sg39
I229
sg40
I483
stp124
Rp125
tp126
a(g24
g3
(g4
g5
(dp127
g2
I27820
sg7
I515
sg8
I90
sg9
I189
sg10
I433
sg11
I114
sg12
I243
sg45
I119
sg13
I73
sg14
I100
sg46
I99
sg47
I1
sg15
I25625
sg16
I2223
sg17
I2348
sg18
I28313
sg19
I1525
sg20
I1195
sg21
I1554
sg22
I24009
sg23
I3703
sg24
I2118
sg25
I511
sg26
I3116
sg27
I5027
sg28
I15234
sg29
I3143
sg30
I118
sg31
I2327
sg32
I11977
sg33
I10449
sg34
I9206
sg35
I5176
sg36
I1497
sg37
I950
sg38
I4963
sg39
I177
sg40
I1824
stp128
Rp129
tp130
a(g25
g3
(g4
g5
(dp131
g2
I2530
sg7
I76
sg8
I74
sg9
I43
sg10
I73
sg11
I48
sg12
I62
sg45
I21
sg13
I32
sg14
I43
sg46
I39
sg15
I10975
sg16
I734
sg17
I504
sg18
I6936
sg19
I610
sg20
I305
sg21
I370
sg22
I5268
sg23
I394
sg24
I571
sg25
I500
sg26
I671
sg27
I444
sg28
I12127
sg29
I635
sg30
I143
sg31
I22927
sg32
I1503
sg33
I533
sg34
I5599
sg35
I502
sg36
I281
sg37
I212
sg38
I444
sg39
I216
sg40
I261
stp132
Rp133
tp134
a(g26
g3
(g4
g5
(dp135
g2
I74817
sg7
I318
sg8
I68
sg9
I228
sg10
I476
sg11
I104
sg12
I262
sg45
I105
sg13
I79
sg14
I110
sg46
I109
sg15
I84272
sg16
I4200
sg17
I11935
sg18
I66567
sg19
I2578
sg20
I2295
sg21
I1787
sg22
I33407
sg23
I1430
sg24
I1604
sg25
I569
sg26
I8103
sg27
I2945
sg28
I40539
sg29
I2184
sg30
I172
sg31
I16865
sg32
I11377
sg33
I2326
sg34
I13211
sg35
I3061
sg36
I1363
sg37
I952
sg38
I15386
sg39
I4576
sg40
I700
stp136
Rp137
tp138
a(g27
g3
(g4
g5
(dp139
g2
I44288
sg7
I233
sg8
I85
sg9
I293
sg10
I500
sg11
I193
sg12
I249
sg45
I103
sg13
I57
sg14
I82
sg46
I95
sg15
I64319
sg16
I6442
sg17
I4994
sg18
I72120
sg19
I15199
sg20
I3887
sg21
I5007
sg22
I79227
sg23
I2823
sg24
I5548
sg25
I983
sg26
I8597
sg27
I41379
sg28
I61848
sg29
I2760
sg30
I288
sg31
I6725
sg32
I17294
sg33
I5793
sg34
I21255
sg35
I17512
sg36
I2050
sg37
I3681
sg38
I13247
sg39
I390
sg40
I960
stp140
Rp141
tp142
a(g28
g3
(g4
g5
(dp143
g2
I89761
sg7
I529
sg8
I102
sg9
I332
sg10
I839
sg11
I143
sg12
I266
sg45
I184
sg13
I89
sg14
I165
sg46
I152
sg47
I1
sg15
I11776
sg16
I22647
sg17
I21553
sg18
I7088
sg19
I25811
sg20
I33811
sg21
I17374
sg22
I11990
sg23
I4992
sg24
I17402
sg25
I4154
sg26
I591207
sg27
I42862
sg28
I34943
sg29
I103282
sg30
I633
sg31
I33640
sg32
I41695
sg33
I148295
sg34
I41879
sg35
I46270
sg36
I18911
sg37
I25191
sg38
I7201
sg39
I6134
sg40
I4273
stp144
Rp145
tp146
a(g29
g3
(g4
g5
(dp147
g2
I61425
sg7
I571
sg8
I138
sg9
I316
sg10
I778
sg11
I130
sg12
I289
sg45
I164
sg13
I143
sg14
I134
sg46
I237
sg15
I49969
sg16
I25081
sg17
I6949
sg18
I138834
sg19
I50868
sg20
I59541
sg21
I20725
sg22
I42650
sg23
I6431
sg24
I16194
sg25
I3114
sg26
I5608
sg27
I24526
sg28
I32628
sg29
I12934
sg30
I870
sg31
I5813
sg32
I36465
sg33
I3584
sg34
I9194
sg35
I58577
sg36
I3174
sg37
I4776
sg38
I7975
sg39
I1118
sg40
I4623
stp148
Rp149
tp150
a(g30
g3
(g4
g5
(dp151
g2
I2180
sg7
I74
sg8
I24
sg9
I44
sg10
I45
sg11
I35
sg12
I39
sg45
I24
sg13
I27
sg14
I50
sg46
I75
sg15
I993
sg16
I459
sg17
I226
sg18
I229
sg19
I196
sg20
I94
sg21
I106
sg22
I1132
sg23
I151
sg24
I67
sg25
I80
sg26
I273
sg27
I415
sg28
I273
sg29
I195
sg30
I345
sg31
I184
sg32
I370
sg33
I232
sg34
I11009
sg35
I287
sg36
I199
sg37
I118
sg38
I109
sg39
I113
sg40
I112
stp152
Rp153
tp154
a(g31
g3
(g4
g5
(dp155
g2
I25447
sg7
I1240
sg8
I62
sg9
I1255
sg10
I550
sg11
I107
sg12
I290
sg45
I80
sg13
I51
sg14
I96
sg46
I93
sg47
I3
sg15
I40785
sg16
I4548
sg17
I2363
sg18
I33746
sg19
I2448
sg20
I1532
sg21
I1778
sg22
I21049
sg23
I11931
sg24
I3124
sg25
I434
sg26
I2550
sg27
I35140
sg28
I49976
sg29
I1979
sg30
I122
sg31
I13243
sg32
I11473
sg33
I36032
sg34
I9706
sg35
I9601
sg36
I1348
sg37
I734
sg38
I3130
sg39
I311
sg40
I465
stp156
Rp157
tp158
a(g32
g3
(g4
g5
(dp159
g2
I153492
sg7
I959
sg8
I141
sg9
I551
sg10
I1658
sg11
I209
sg12
I1031
sg45
I266
sg13
I149
sg14
I227
sg46
I206
sg15
I39843
sg16
I25184
sg17
I7126
sg18
I57841
sg19
I7431
sg20
I5481
sg21
I5691
sg22
I49809
sg23
I43520
sg24
I13621
sg25
I1420
sg26
I13906
sg27
I8409
sg28
I33993
sg29
I5924
sg30
I1636
sg31
I36499
sg32
I34106
sg33
I4370
sg34
I22901
sg35
I91619
sg36
I6297
sg37
I2895
sg38
I8243
sg39
I702
sg40
I2089
stp160
Rp161
tp162
a(g33
g3
(g4
g5
(dp163
g2
I62348
sg7
I485
sg8
I90
sg9
I287
sg10
I709
sg11
I139
sg12
I288
sg45
I147
sg13
I89
sg14
I134
sg46
I142
sg47
I1
sg15
I87832
sg16
I16537
sg17
I7794
sg18
I114291
sg19
I20791
sg20
I58072
sg21
I5727
sg22
I65736
sg23
I3180
sg24
I17593
sg25
I1336
sg26
I14306
sg27
I13753
sg28
I69163
sg29
I19360
sg30
I566
sg31
I7714
sg32
I33954
sg33
I9552
sg34
I66968
sg35
I42184
sg36
I2986
sg37
I8257
sg38
I15476
sg39
I616
sg40
I2002
stp164
Rp165
tp166
a(g34
g3
(g4
g5
(dp167
g2
I21389
sg7
I211
sg8
I42
sg9
I121
sg10
I170
sg11
I65
sg12
I90
sg45
I49
sg13
I62
sg14
I97
sg46
I94
sg47
I1
sg15
I15397
sg16
I11595
sg17
I17218
sg18
I14019
sg19
I12072
sg20
I6382
sg21
I2871
sg22
I12200
sg23
I1842
sg24
I23938
sg25
I1755
sg26
I21826
sg27
I17562
sg28
I3527
sg29
I34488
sg30
I379
sg31
I16262
sg32
I39676
sg33
I44044
sg34
I1040
sg35
I26326
sg36
I1148
sg37
I1767
sg38
I3505
sg39
I3105
sg40
I4081
stp168
Rp169
tp170
a(g35
g3
(g4
g5
(dp171
g2
I78848
sg7
I559
sg8
I112
sg9
I379
sg10
I1038
sg11
I188
sg12
I481
sg45
I162
sg13
I119
sg14
I166
sg46
I159
sg47
I4
sg15
I68528
sg16
I11986
sg17
I6235
sg18
I92584
sg19
I4192
sg20
I3260
sg21
I4243
sg22
I70158
sg23
I41702
sg24
I2894
sg25
I1342
sg26
I10530
sg27
I7865
sg28
I69182
sg29
I5525
sg30
I296
sg31
I5420
sg32
I29624
sg33
I50602
sg34
I30658
sg35
I15584
sg36
I12096
sg37
I10841
sg38
I17398
sg39
I757
sg40
I2375
stp172
Rp173
tp174
a(g36
g3
(g4
g5
(dp175
g2
I8099
sg7
I100
sg8
I39
sg9
I208
sg10
I204
sg11
I32
sg12
I53
sg45
I40
sg13
I25
sg14
I35
sg46
I56
sg47
I1
sg15
I21487
sg16
I1334
sg17
I1154
sg18
I26267
sg19
I1102
sg20
I611
sg21
I706
sg22
I14653
sg23
I4189
sg24
I578
sg25
I281
sg26
I1180
sg27
I1237
sg28
I18570
sg29
I4665
sg30
I90
sg31
I2026
sg32
I12037
sg33
I1763
sg34
I832
sg35
I1557
sg36
I1272
sg37
I226
sg38
I1246
sg39
I203
sg40
I357
stp176
Rp177
tp178
a(g37
g3
(g4
g5
(dp179
g2
I15042
sg7
I181
sg8
I34
sg9
I114
sg10
I205
sg11
I90
sg12
I100
sg45
I64
sg13
I57
sg14
I64
sg46
I72
sg15
I17873
sg16
I1222
sg17
I747
sg18
I45488
sg19
I1110
sg20
I594
sg21
I438
sg22
I37268
sg23
I406
sg24
I806
sg25
I161
sg26
I805
sg27
I930
sg28
I9751
sg29
I5340
sg30
I52
sg31
I1156
sg32
I2124
sg33
I1597
sg34
I1247
sg35
I1442
sg36
I313
sg37
I542
sg38
I1015
sg39
I169
sg40
I248
stp180
Rp181
tp182
a(g38
g3
(g4
g5
(dp183
g2
I43086
sg7
I315
sg8
I59
sg9
I189
sg10
I558
sg11
I77
sg12
I265
sg45
I91
sg13
I81
sg14
I80
sg46
I124
sg47
I1
sg15
I15062
sg16
I6942
sg17
I5279
sg18
I7462
sg19
I4083
sg20
I2812
sg21
I3202
sg22
I3804
sg23
I2512
sg24
I1586
sg25
I900
sg26
I5644
sg27
I6012
sg28
I12670
sg29
I4481
sg30
I250
sg31
I5870
sg32
I14357
sg33
I3277
sg34
I4257
sg35
I5917
sg36
I2779
sg37
I1160
sg38
I658
sg39
I474
sg40
I2164
stp184
Rp185
tp186
a(g39
g3
(g4
g5
(dp187
g2
I15231
sg7
I223
sg8
I58
sg9
I163
sg10
I234
sg11
I84
sg12
I222
sg45
I158
sg13
I55
sg14
I63
sg46
I78
sg15
I2721
sg16
I2407
sg17
I954
sg18
I2631
sg19
I789
sg20
I545
sg21
I899
sg22
I5268
sg23
I662
sg24
I216
sg25
I237
sg26
I1261
sg27
I916
sg28
I1676
sg29
I3373
sg30
I91
sg31
I5497
sg32
I1578
sg33
I514
sg34
I1351
sg35
I4331
sg36
I496
sg37
I622
sg38
I3066
sg39
I4282
sg40
I214
stp188
Rp189
tp190
a(g40
g3
(g4
g5
(dp191
g2
I9588
sg7
I139
sg8
I47
sg9
I54
sg10
I128
sg11
I45
sg12
I61
sg45
I35
sg13
I34
sg14
I42
sg46
I45
sg47
I1
sg15
I14109
sg16
I861
sg17
I1107
sg18
I8862
sg19
I1418
sg20
I699
sg21
I477
sg22
I8216
sg23
I2340
sg24
I744
sg25
I383
sg26
I1219
sg27
I1502
sg28
I6293
sg29
I1332
sg30
I137
sg31
I723
sg32
I983
sg33
I432
sg34
I2424
sg35
I952
sg36
I613
sg37
I428
sg38
I1864
sg39
I259
sg40
I3566
stp192
Rp193
tp194
aaS'\n\t\r~@#%^&*"\'/\\-+<>{}|$!:()[];?,='
p195
aI01
a.