(lp0
(lp1
(S' '
p2
ccopy_reg
_reconstructor
p3
(c__main__
CharCount
p4
c__builtin__
dict
p5
(dp6
g2
I203
sS'.'
p7
I88
sS'1'
p8
I973
sS'0'
p9
I677
sS'3'
p10
I363
sS'2'
p11
I1297
sS'5'
p12
I103
sS'4'
p13
I150
sS'7'
p14
I132
sS'6'
p15
I165
sS'9'
p16
I261
sS'8'
p17
I98
sS'_'
p18
I8
sS'a'
p19
I1034
sS'c'
p20
I1205
sS'b'
p21
I886
sS'e'
p22
I417
sS'd'
p23
I1198
sS'g'
p24
I313
sS'f'
p25
I1550
sS'i'
p26
I716
sS'h'
p27
I642
sS'k'
p28
I195
sS'j'
p29
I227
sS'm'
p30
I700
sS'l'
p31
I769
sS'o'
p32
I1009
sS'n'
p33
I533
sS'q'
p34
I83
sS'p'
p35
I1373
sS's'
p36
I1597
sS'r'
p37
I1353
sS'u'
p38
I149
sS't'
p39
I752
sS'w'
p40
I444
sS'v'
p41
I204
sS'y'
p42
I67
sS'x'
p43
I60
sS'z'
p44
I13
stp45
Rp46
tp47
a(g7
g3
(g4
g5
(dp48
g2
I287
sg7
I125
sg8
I460
sg9
I117
sg10
I68
sg11
I245
sg12
I44
sg13
I65
sg14
I21
sg15
I37
sg16
I41
sg17
I32
sg18
I759
sg19
I696
sg20
I3382
sg21
I363
sg22
I376
sg23
I1719
sg24
I4894
sg25
I73
sg26
I114
sg27
I310
sg28
I8
sg29
I19349
sg30
I147
sg31
I26
sg32
I29
sg33
I20
sg35
I19924
sg36
I496
sg37
I76
sg38
I4
sg39
I595
sg40
I152
sg41
I25
sg42
I231
sg43
I526
sg44
I658
stp49
Rp50
tp51
a(g8
g3
(g4
g5
(dp52
g2
I342
sg7
I3553
sg8
I5816
sg9
I9913
sg10
I4027
sg11
I4835
sg12
I15954
sg13
I5252
sg14
I3631
sg15
I4652
sg16
I3126
sg17
I4136
sg18
I1888
sg19
I874
sg20
I1267
sg21
I883
sg22
I1786
sg23
I1527
sg24
I30
sg25
I830
sg26
I24
sg27
I18
sg28
I30
sg29
I22
sg30
I30
sg31
I35
sg32
I26
sg33
I19
sg34
I20
sg35
I29
sg36
I38
sg37
I24
sg38
I8
sg39
I58
sg40
I28
sg41
I16
sg42
I20
sg43
I31
sg44
I41
stp53
Rp54
tp55
a(g9
g3
(g4
g5
(dp56
g2
I221
sg7
I2967
sg8
I10436
sg9
I12091
sg10
I3483
sg11
I4774
sg12
I3345
sg13
I4604
sg14
I3139
sg15
I3717
sg16
I8250
sg17
I3346
sg18
I2950
sg19
I946
sg20
I1439
sg21
I1622
sg22
I931
sg23
I893
sg24
I22
sg25
I1304
sg26
I19
sg27
I110
sg28
I20
sg29
I18
sg30
I27
sg31
I18
sg32
I18
sg33
I20
sg34
I14
sg35
I37
sg36
I25
sg37
I18
sg38
I21
sg39
I46
sg40
I48
sg41
I26
sg42
I16
sg43
I431
sg44
I46
stp57
Rp58
tp59
a(g10
g3
(g4
g5
(dp60
g2
I204
sg7
I2438
sg8
I3235
sg9
I3534
sg10
I2689
sg11
I2670
sg12
I2617
sg13
I2567
sg14
I2447
sg15
I2446
sg16
I2471
sg17
I2233
sg18
I1651
sg19
I896
sg20
I1294
sg21
I1482
sg22
I938
sg23
I967
sg24
I35
sg25
I893
sg26
I20
sg27
I22
sg28
I16
sg29
I19
sg30
I24
sg31
I29
sg32
I18
sg33
I22
sg34
I20
sg35
I17
sg36
I23
sg37
I22
sg38
I16
sg39
I29
sg40
I12
sg41
I16
sg42
I24
sg43
I23
sg44
I45
stp61
Rp62
tp63
a(g11
g3
(g4
g5
(dp64
g2
I296
sg7
I3071
sg8
I4679
sg9
I8384
sg10
I3395
sg11
I3566
sg12
I3480
sg13
I3132
sg14
I2687
sg15
I2905
sg16
I3325
sg17
I3322
sg18
I1783
sg19
I942
sg20
I1238
sg21
I865
sg22
I1046
sg23
I901
sg24
I26
sg25
I981
sg26
I16
sg27
I32
sg28
I18
sg29
I12
sg30
I26
sg31
I19
sg32
I20
sg33
I44
sg34
I20
sg35
I20
sg36
I24
sg37
I17
sg38
I20
sg39
I37
sg40
I19
sg41
I21
sg42
I20
sg43
I63
sg44
I41
stp65
Rp66
tp67
a(g12
g3
(g4
g5
(dp68
g2
I575
sg7
I3172
sg8
I8631
sg9
I8558
sg10
I2403
sg11
I3182
sg12
I2493
sg13
I3412
sg14
I2414
sg15
I2447
sg16
I2325
sg17
I2169
sg18
I1696
sg19
I908
sg20
I1277
sg21
I952
sg22
I876
sg23
I875
sg24
I13
sg25
I891
sg26
I18
sg27
I21
sg28
I21
sg29
I26
sg30
I28
sg31
I49
sg32
I28
sg33
I11
sg34
I23
sg35
I34
sg36
I22
sg37
I24
sg38
I11
sg39
I61
sg40
I30
sg41
I10
sg42
I32
sg43
I91
sg44
I59
stp69
Rp70
tp71
a(g13
g3
(g4
g5
(dp72
g2
I260
sg7
I2477
sg8
I3597
sg9
I3455
sg10
I3115
sg11
I3912
sg12
I2686
sg13
I3646
sg14
I2329
sg15
I2456
sg16
I4839
sg17
I2637
sg18
I1661
sg19
I914
sg20
I1413
sg21
I920
sg22
I2218
sg23
I999
sg24
I20
sg25
I1608
sg26
I15
sg27
I13
sg28
I21
sg29
I21
sg30
I26
sg31
I18
sg32
I15
sg33
I16
sg34
I20
sg35
I25
sg36
I13
sg37
I16
sg38
I10
sg39
I78
sg40
I17
sg41
I18
sg42
I18
sg43
I30
sg44
I41
stp73
Rp74
tp75
a(g14
g3
(g4
g5
(dp76
g2
I191
sg7
I1896
sg8
I2980
sg9
I4118
sg10
I2551
sg11
I3351
sg12
I2295
sg13
I2945
sg14
I2341
sg15
I2771
sg16
I2122
sg17
I2356
sg18
I1137
sg19
I861
sg20
I1254
sg21
I868
sg22
I818
sg23
I907
sg24
I13
sg25
I880
sg26
I14
sg27
I16
sg28
I13
sg29
I11
sg30
I13
sg31
I11
sg32
I22
sg33
I8
sg34
I13
sg35
I12
sg36
I30
sg37
I9
sg38
I25
sg39
I38
sg40
I20
sg41
I10
sg42
I12
sg43
I17
sg44
I41
stp77
Rp78
tp79
a(g15
g3
(g4
g5
(dp80
g2
I151
sg7
I2129
sg8
I2812
sg9
I3698
sg10
I2992
sg11
I2416
sg12
I8194
sg13
I4654
sg14
I2747
sg15
I2258
sg16
I2235
sg17
I2176
sg18
I1084
sg19
I1289
sg20
I1929
sg21
I906
sg22
I892
sg23
I1551
sg24
I13
sg25
I942
sg26
I22
sg27
I20
sg28
I33
sg29
I18
sg30
I10
sg31
I19
sg32
I17
sg33
I18
sg34
I13
sg35
I15
sg36
I27
sg37
I14
sg38
I8
sg39
I55
sg40
I17
sg41
I7
sg42
I32
sg43
I40
sg44
I53
stp81
Rp82
tp83
a(g16
g3
(g4
g5
(dp84
g2
I162
sg7
I1952
sg8
I6091
sg9
I2724
sg10
I2882
sg11
I5141
sg12
I2398
sg13
I2319
sg14
I2400
sg15
I2376
sg16
I2688
sg17
I2204
sg18
I1396
sg19
I917
sg20
I1346
sg21
I945
sg22
I921
sg23
I929
sg24
I21
sg25
I934
sg26
I25
sg27
I19
sg28
I18
sg29
I30
sg30
I13
sg31
I17
sg32
I15
sg33
I14
sg34
I17
sg35
I23
sg36
I23
sg37
I15
sg38
I18
sg39
I73
sg40
I10
sg41
I16
sg42
I10
sg43
I19
sg44
I34
stp85
Rp86
tp87
a(g17
g3
(g4
g5
(dp88
g2
I135
sg7
I2141
sg8
I2654
sg9
I2546
sg10
I2350
sg11
I2392
sg12
I2434
sg13
I2373
sg14
I2336
sg15
I2948
sg16
I2218
sg17
I2342
sg18
I1614
sg19
I867
sg20
I1290
sg21
I1529
sg22
I860
sg23
I920
sg24
I17
sg25
I909
sg26
I10
sg27
I18
sg28
I16
sg29
I15
sg30
I22
sg31
I15
sg32
I9
sg33
I21
sg34
I13
sg35
I21
sg36
I22
sg37
I21
sg38
I16
sg39
I51
sg40
I37
sg41
I13
sg42
I13
sg43
I22
sg44
I38
stp89
Rp90
tp91
a(g18
g3
(g4
g5
(dp92
g2
I7
sg7
I44
sg8
I8344
sg9
I1839
sg10
I815
sg11
I2407
sg12
I738
sg13
I546
sg14
I399
sg15
I4579
sg16
I1102
sg17
I944
sg18
I146
sg19
I687
sg20
I810
sg21
I456
sg22
I224
sg23
I1115
sg24
I280
sg25
I2391
sg26
I2153
sg27
I329
sg28
I103
sg29
I107
sg30
I391
sg31
I579
sg32
I410
sg33
I244
sg34
I92
sg35
I870
sg36
I1377
sg37
I1462
sg38
I199
sg39
I592
sg40
I517
sg41
I355
sg42
I49
sg43
I296
sg44
I35
stp93
Rp94
tp95
a(g19
g3
(g4
g5
(dp96
g2
I875
sg7
I870
sg8
I924
sg9
I995
sg10
I955
sg11
I975
sg12
I875
sg13
I945
sg14
I1270
sg15
I934
sg16
I877
sg17
I887
sg18
I2208
sg19
I1565
sg20
I2666
sg21
I1221
sg22
I995
sg23
I3004
sg24
I1821
sg25
I1105
sg26
I832
sg27
I425
sg28
I352
sg29
I71
sg30
I2042
sg31
I4115
sg32
I65
sg33
I4451
sg34
I78
sg35
I751
sg36
I1672
sg37
I4113
sg38
I1282
sg39
I3037
sg40
I201
sg41
I852
sg42
I1054
sg43
I420
sg44
I122
stp97
Rp98
tp99
a(S'`'
p100
g3
(g4
g5
(dp101
g36
I2
sg21
I5
stp102
Rp103
tp104
a(g20
g3
(g4
g5
(dp105
g2
I314
sg7
I5663
sg8
I910
sg9
I951
sg10
I849
sg11
I910
sg12
I836
sg13
I806
sg14
I902
sg15
I852
sg16
I874
sg17
I887
sg18
I1143
sg19
I3018
sg20
I1168
sg21
I978
sg22
I3776
sg23
I908
sg24
I83
sg25
I3598
sg26
I559
sg27
I1592
sg28
I876
sg29
I47
sg30
I74
sg31
I458
sg32
I2489
sg33
I103
sg34
I58
sg35
I110
sg36
I743
sg37
I982
sg38
I421
sg39
I1146
sg40
I48
sg41
I2419
sg42
I111
sg43
I769
sg44
I34
stp106
Rp107
tp108
a(g21
g3
(g4
g5
(dp109
g2
I108
sg7
I820
sg8
I2325
sg9
I982
sg10
I938
sg11
I980
sg12
I877
sg13
I1513
sg14
I870
sg15
I908
sg16
I994
sg17
I922
sg18
I230
sg19
I1858
sg20
I907
sg21
I1084
sg22
I1977
sg23
I964
sg24
I175
sg25
I902
sg26
I582
sg27
I59
sg28
I49
sg29
I54
sg30
I391
sg31
I453
sg32
I584
sg33
I112
sg34
I37
sg35
I316
sg36
I161
sg37
I505
sg38
I475
sg39
I122
sg40
I248
sg41
I36
sg42
I230
sg43
I49
sg44
I36
stp110
Rp111
tp112
a(g22
g3
(g4
g5
(dp113
g2
I2770
sg7
I2244
sg8
I1022
sg9
I1259
sg10
I942
sg11
I966
sg12
I1209
sg13
I935
sg14
I2209
sg15
I1535
sg16
I987
sg17
I1584
sg18
I2062
sg19
I2776
sg20
I1986
sg21
I1529
sg22
I2007
sg23
I2604
sg24
I1838
sg25
I7570
sg26
I511
sg27
I139
sg28
I169
sg29
I78
sg30
I1413
sg31
I1640
sg32
I507
sg33
I5616
sg34
I311
sg35
I1126
sg36
I3504
sg37
I6228
sg38
I209
sg39
I1500
sg40
I631
sg41
I513
sg42
I501
sg43
I779
sg44
I120
stp114
Rp115
tp116
a(g23
g3
(g4
g5
(dp117
g2
I1225
sg7
I1033
sg8
I978
sg9
I935
sg10
I859
sg11
I971
sg12
I935
sg13
I1592
sg14
I882
sg15
I878
sg16
I903
sg17
I1045
sg18
I1931
sg19
I2018
sg20
I3749
sg21
I989
sg22
I4954
sg23
I1141
sg24
I249
sg25
I16241
sg26
I1623
sg27
I88
sg28
I38
sg29
I44
sg30
I110
sg31
I179
sg32
I2539
sg33
I143
sg34
I40
sg35
I253
sg36
I654
sg37
I536
sg38
I378
sg39
I125
sg40
I352
sg41
I528
sg42
I156
sg43
I55
sg44
I51
stp118
Rp119
tp120
a(g24
g3
(g4
g5
(dp121
g2
I448
sg7
I2372
sg8
I78
sg9
I82
sg10
I31
sg11
I43
sg12
I37
sg13
I31
sg14
I23
sg15
I66
sg16
I22
sg17
I16
sg18
I1082
sg19
I392
sg20
I88
sg21
I75
sg22
I1964
sg23
I87
sg24
I121
sg25
I94
sg26
I5299
sg27
I324
sg28
I43
sg29
I40
sg30
I94
sg31
I302
sg32
I703
sg33
I429
sg34
I45
sg35
I75
sg36
I207
sg37
I879
sg38
I264
sg39
I247
sg40
I42
sg41
I88
sg42
I80
sg43
I55
sg44
I87
stp122
Rp123
tp124
a(g25
g3
(g4
g5
(dp125
g2
I481
sg7
I3197
sg8
I933
sg9
I994
sg10
I919
sg11
I969
sg12
I906
sg13
I2206
sg14
I858
sg15
I1358
sg16
I874
sg17
I854
sg18
I123
sg19
I1761
sg20
I918
sg21
I954
sg22
I1664
sg23
I974
sg24
I73
sg25
I1306
sg26
I1386
sg27
I71
sg28
I63
sg29
I57
sg30
I304
sg31
I445
sg32
I1099
sg33
I83
sg34
I75
sg35
I89
sg36
I123
sg37
I1493
sg38
I466
sg39
I6449
sg40
I72
sg41
I54
sg42
I119
sg43
I74
sg44
I61
stp126
Rp127
tp128
a(g26
g3
(g4
g5
(dp129
g2
I176
sg7
I281
sg8
I36
sg9
I26
sg10
I25
sg11
I22
sg12
I22
sg13
I24
sg14
I12
sg15
I14
sg16
I22
sg17
I21
sg18
I132
sg19
I1502
sg20
I3438
sg21
I171
sg22
I1036
sg23
I1342
sg24
I1097
sg25
I5728
sg26
I70
sg27
I85
sg28
I124
sg29
I56
sg30
I2101
sg31
I2274
sg32
I1511
sg33
I8026
sg34
I70
sg35
I1069
sg36
I1679
sg37
I718
sg38
I130
sg39
I1540
sg40
I49
sg41
I363
sg42
I54
sg43
I120
sg44
I337
stp130
Rp131
tp132
a(g27
g3
(g4
g5
(dp133
g2
I402
sg7
I286
sg8
I36
sg9
I18
sg10
I29
sg11
I24
sg12
I23
sg13
I15
sg14
I20
sg15
I27
sg16
I16
sg17
I10
sg18
I194
sg19
I1213
sg20
I105
sg21
I107
sg22
I1945
sg23
I2920
sg24
I48
sg25
I55
sg26
I837
sg27
I42
sg28
I54
sg29
I46
sg30
I222
sg31
I162
sg32
I1341
sg33
I154
sg34
I29
sg35
I108
sg36
I140
sg37
I233
sg38
I500
sg39
I1266
sg40
I69
sg41
I51
sg42
I186
sg43
I51
sg44
I34
stp134
Rp135
tp136
a(g28
g3
(g4
g5
(dp137
g2
I282
sg7
I318
sg8
I50
sg9
I14
sg10
I21
sg11
I38
sg12
I15
sg13
I16
sg14
I11
sg15
I24
sg16
I21
sg17
I16
sg18
I113
sg19
I332
sg20
I65
sg21
I57
sg22
I770
sg23
I55
sg24
I161
sg25
I84
sg26
I440
sg27
I56
sg28
I41
sg29
I40
sg30
I93
sg31
I167
sg32
I109
sg33
I65
sg34
I44
sg35
I76
sg36
I290
sg37
I144
sg38
I67
sg39
I114
sg40
I57
sg41
I43
sg42
I126
sg43
I47
sg44
I47
stp138
Rp139
tp140
a(g29
g3
(g4
g5
(dp141
g2
I30
sg7
I159
sg8
I27
sg9
I25
sg10
I19
sg11
I22
sg12
I20
sg13
I18
sg14
I11
sg15
I14
sg16
I10
sg17
I11
sg18
I9
sg19
I331
sg20
I78
sg21
I55
sg22
I200
sg23
I61
sg24
I45
sg25
I43
sg26
I78
sg27
I46
sg28
I47
sg29
I34
sg30
I51
sg31
I43
sg32
I446
sg33
I44
sg34
I108
sg35
I19040
sg36
I472
sg37
I60
sg38
I160
sg39
I51
sg40
I43
sg41
I59
sg42
I37
sg43
I46
sg44
I43
stp142
Rp143
tp144
a(g30
g3
(g4
g5
(dp145
g2
I685
sg7
I444
sg8
I58
sg9
I26
sg10
I32
sg11
I42
sg12
I28
sg13
I16
sg14
I27
sg15
I21
sg16
I21
sg17
I24
sg18
I1024
sg19
I2380
sg20
I187
sg21
I704
sg22
I3907
sg23
I100
sg24
I932
sg25
I75
sg26
I1289
sg27
I54
sg28
I69
sg29
I60
sg30
I305
sg31
I354
sg32
I1527
sg33
I148
sg34
I46
sg35
I960
sg36
I291
sg37
I72
sg38
I134
sg39
I125
sg40
I59
sg41
I63
sg42
I207
sg43
I249
sg44
I56
stp146
Rp147
tp148
a(g31
g3
(g4
g5
(dp149
g2
I1328
sg7
I992
sg8
I62
sg9
I30
sg10
I40
sg11
I50
sg12
I23
sg13
I27
sg14
I46
sg15
I26
sg16
I16
sg17
I18
sg18
I1150
sg19
I2163
sg20
I219
sg21
I127
sg22
I3513
sg23
I617
sg24
I68
sg25
I107
sg26
I1787
sg27
I77
sg28
I117
sg29
I44
sg30
I126
sg31
I1808
sg32
I1769
sg33
I82
sg34
I52
sg35
I207
sg36
I792
sg37
I107
sg38
I398
sg39
I414
sg40
I59
sg41
I96
sg42
I740
sg43
I47
sg44
I59
stp150
Rp151
tp152
a(g32
g3
(g4
g5
(dp153
g2
I591
sg7
I1076
sg8
I72
sg9
I626
sg10
I27
sg11
I41
sg12
I24
sg13
I24
sg14
I20
sg15
I22
sg16
I11
sg17
I10
sg18
I588
sg19
I333
sg100
I5
sg20
I2683
sg21
I669
sg22
I137
sg23
I476
sg24
I683
sg25
I996
sg26
I1537
sg27
I162
sg28
I231
sg29
I54
sg30
I2426
sg31
I963
sg32
I845
sg33
I4608
sg34
I40
sg35
I928
sg36
I1125
sg37
I3999
sg38
I1126
sg39
I1198
sg40
I673
sg41
I455
sg42
I151
sg43
I126
sg44
I86
stp154
Rp155
tp156
a(g33
g3
(g4
g5
(dp157
g2
I1536
sg7
I1220
sg8
I434
sg9
I139
sg10
I116
sg11
I246
sg12
I101
sg13
I84
sg14
I2344
sg15
I90
sg16
I15
sg17
I19
sg18
I439
sg19
I3416
sg20
I1573
sg21
I99
sg22
I5273
sg23
I2801
sg24
I6295
sg25
I266
sg26
I882
sg27
I84
sg28
I285
sg29
I79
sg30
I77
sg31
I178
sg32
I1256
sg33
I819
sg34
I60
sg35
I258
sg36
I1811
sg37
I94
sg38
I262
sg39
I5194
sg40
I74
sg41
I2493
sg42
I190
sg43
I167
sg44
I78
stp158
Rp159
tp160
a(g34
g3
(g4
g5
(dp161
g2
I6
sg7
I105
sg8
I59
sg9
I14
sg10
I51
sg11
I21
sg12
I16
sg13
I22
sg14
I10
sg15
I80
sg16
I5
sg17
I11
sg18
I14
sg19
I33
sg20
I44
sg21
I43
sg22
I60
sg23
I49
sg24
I47
sg25
I42
sg26
I41
sg27
I33
sg28
I37
sg29
I47
sg30
I40
sg31
I42
sg32
I46
sg33
I31
sg34
I36
sg35
I40
sg36
I48
sg37
I38
sg38
I697
sg39
I48
sg40
I52
sg41
I38
sg42
I38
sg43
I39
sg44
I38
stp162
Rp163
tp164
a(g35
g3
(g4
g5
(dp165
g2
I272
sg7
I408
sg8
I95
sg9
I141
sg10
I80
sg11
I46
sg12
I32
sg13
I53
sg14
I29
sg15
I18
sg16
I16
sg17
I29
sg18
I445
sg19
I2196
sg20
I262
sg21
I84
sg22
I2619
sg23
I15470
sg24
I17486
sg25
I75
sg26
I702
sg27
I373
sg28
I70
sg29
I42
sg30
I123
sg31
I809
sg32
I1388
sg33
I4766
sg34
I30
sg35
I533
sg36
I245
sg37
I1398
sg38
I195
sg39
I659
sg40
I50
sg41
I45
sg42
I193
sg43
I80
sg44
I24
stp166
Rp167
tp168
a(g36
g3
(g4
g5
(dp169
g2
I1521
sg7
I1350
sg8
I111
sg9
I64
sg10
I69
sg11
I110
sg12
I34
sg13
I33
sg14
I33
sg15
I31
sg16
I27
sg17
I23
sg18
I2265
sg19
I947
sg20
I946
sg21
I130
sg22
I1915
sg23
I109
sg24
I106
sg25
I147
sg26
I1450
sg27
I1145
sg28
I301
sg29
I42
sg30
I350
sg31
I280
sg32
I1349
sg33
I123
sg34
I72
sg35
I895
sg36
I1847
sg37
I132
sg38
I1033
sg39
I4727
sg40
I527
sg41
I295
sg42
I190
sg43
I249
sg44
I48
stp170
Rp171
tp172
a(g37
g3
(g4
g5
(dp173
g2
I1855
sg7
I1136
sg8
I146
sg9
I27
sg10
I77
sg11
I104
sg12
I49
sg13
I64
sg14
I29
sg15
I34
sg16
I14
sg17
I24
sg18
I1121
sg19
I3138
sg20
I432
sg21
I189
sg22
I5624
sg23
I1167
sg24
I336
sg25
I144
sg26
I2312
sg27
I70
sg28
I345
sg29
I53
sg30
I639
sg31
I630
sg32
I3639
sg33
I638
sg34
I65
sg35
I305
sg36
I807
sg37
I580
sg38
I1052
sg39
I2546
sg40
I88
sg41
I395
sg42
I704
sg43
I52
sg44
I63
stp174
Rp175
tp176
a(g38
g3
(g4
g5
(dp177
g2
I41
sg7
I108
sg8
I34
sg9
I19
sg10
I25
sg11
I19
sg12
I21
sg13
I16
sg14
I11
sg15
I17
sg16
I23
sg17
I13
sg18
I39
sg19
I225
sg20
I312
sg21
I284
sg22
I649
sg23
I173
sg24
I205
sg25
I127
sg26
I325
sg27
I51
sg28
I66
sg29
I44
sg30
I2107
sg31
I776
sg32
I86
sg33
I816
sg34
I40
sg35
I504
sg36
I1627
sg37
I977
sg38
I55
sg39
I912
sg40
I48
sg41
I32
sg42
I48
sg43
I69
sg44
I27
stp178
Rp179
tp180
a(g39
g3
(g4
g5
(dp181
g2
I1856
sg7
I4401
sg8
I1645
sg9
I1841
sg10
I113
sg11
I97
sg12
I58
sg13
I47
sg14
I24
sg15
I30
sg16
I26
sg17
I25
sg18
I1768
sg19
I3186
sg100
I2
sg20
I184
sg21
I115
sg22
I3185
sg23
I112
sg24
I65
sg25
I248
sg26
I3239
sg27
I1631
sg28
I47
sg29
I62
sg30
I535
sg31
I731
sg32
I1845
sg33
I184
sg34
I43
sg35
I991
sg36
I1451
sg37
I2894
sg38
I518
sg39
I1903
sg40
I136
sg41
I440
sg42
I473
sg43
I330
sg44
I80
stp182
Rp183
tp184
a(g40
g3
(g4
g5
(dp185
g2
I259
sg7
I281
sg8
I43
sg9
I27
sg10
I25
sg11
I37
sg12
I42
sg13
I26
sg14
I16
sg15
I13
sg16
I24
sg17
I21
sg18
I95
sg19
I590
sg20
I69
sg21
I61
sg22
I692
sg23
I49
sg24
I55
sg25
I407
sg26
I832
sg27
I200
sg28
I76
sg29
I36
sg30
I75
sg31
I75
sg32
I588
sg33
I212
sg34
I35
sg35
I58
sg36
I252
sg37
I127
sg38
I45
sg39
I65
sg40
I58
sg41
I47
sg42
I76
sg43
I98
sg44
I47
stp186
Rp187
tp188
a(g41
g3
(g4
g5
(dp189
g2
I90
sg7
I115
sg8
I321
sg9
I30
sg10
I37
sg11
I70
sg12
I19
sg13
I28
sg14
I19
sg15
I19
sg16
I11
sg17
I11
sg18
I911
sg19
I852
sg20
I67
sg21
I57
sg22
I1166
sg23
I62
sg24
I77
sg25
I37
sg26
I1337
sg27
I44
sg28
I35
sg29
I39
sg30
I35
sg31
I43
sg32
I1486
sg33
I6216
sg34
I35
sg35
I76
sg36
I52
sg37
I79
sg38
I65
sg39
I36
sg40
I47
sg41
I378
sg42
I68
sg43
I29
sg44
I39
stp190
Rp191
tp192
a(g42
g3
(g4
g5
(dp193
g2
I954
sg7
I620
sg8
I43
sg9
I16
sg10
I30
sg11
I59
sg12
I17
sg13
I19
sg14
I8
sg15
I15
sg16
I11
sg17
I14
sg18
I345
sg19
I370
sg20
I100
sg21
I134
sg22
I266
sg23
I127
sg24
I205
sg25
I68
sg26
I113
sg27
I69
sg28
I58
sg29
I51
sg30
I407
sg31
I266
sg32
I291
sg33
I351
sg34
I62
sg35
I142
sg36
I301
sg37
I96
sg38
I43
sg39
I137
sg40
I69
sg41
I45
sg42
I34
sg43
I69
sg44
I43
stp194
Rp195
tp196
a(g43
g3
(g4
g5
(dp197
g2
I343
sg7
I274
sg8
I404
sg9
I489
sg10
I117
sg11
I213
sg12
I237
sg13
I79
sg14
I63
sg15
I96
sg16
I46
sg17
I63
sg18
I555
sg19
I114
sg20
I77
sg21
I77
sg22
I398
sg23
I74
sg24
I43
sg25
I83
sg26
I130
sg27
I50
sg28
I53
sg29
I54
sg30
I74
sg31
I400
sg32
I67
sg33
I171
sg34
I38
sg35
I134
sg36
I59
sg37
I127
sg38
I51
sg39
I279
sg40
I41
sg41
I47
sg42
I49
sg43
I576
sg44
I61
stp198
Rp199
tp200
a(g44
g3
(g4
g5
(dp201
g2
I41
sg7
I149
sg8
I24
sg9
I12
sg10
I18
sg11
I24
sg12
I13
sg13
I11
sg14
I8
sg15
I14
sg16
I21
sg17
I10
sg18
I279
sg19
I172
sg20
I54
sg21
I36
sg22
I282
sg23
I48
sg24
I58
sg25
I41
sg26
I752
sg27
I42
sg28
I40
sg29
I44
sg30
I55
sg31
I41
sg32
I99
sg33
I41
sg34
I43
sg35
I52
sg36
I51
sg37
I35
sg38
I52
sg39
I51
sg40
I41
sg41
I37
sg42
I41
sg43
I52
sg44
I66
stp202
Rp203
tp204
aaS'\n\t\r~@#%^&*"\'/\\-+<>{}|$!:()[];?,='
p205
aI01
a.