(lp0
(lp1
(S' '
p2
ccopy_reg
_reconstructor
p3
(c__main__
CharCount
p4
c__builtin__
dict
p5
(dp6
g2
I58
sS'.'
p7
I23
sS'1'
p8
I332
sS'0'
p9
I409
sS'3'
p10
I213
sS'2'
p11
I557
sS'5'
p12
I49
sS'4'
p13
I68
sS'7'
p14
I64
sS'6'
p15
I74
sS'9'
p16
I116
sS'8'
p17
I44
sS'_'
p18
I5
sS'a'
p19
I434
sS'c'
p20
I474
sS'b'
p21
I408
sS'e'
p22
I142
sS'd'
p23
I551
sS'g'
p24
I137
sS'f'
p25
I949
sS'i'
p26
I389
sS'h'
p27
I365
sS'k'
p28
I59
sS'j'
p29
I84
sS'm'
p30
I261
sS'l'
p31
I265
sS'o'
p32
I326
sS'n'
p33
I262
sS'q'
p34
I17
sS'p'
p35
I436
sS's'
p36
I756
sS'r'
p37
I499
sS'u'
p38
I55
sS't'
p39
I270
sS'w'
p40
I166
sS'v'
p41
I75
sS'y'
p42
I12
sS'x'
p43
I7
sS'z'
p44
I5
stp45
Rp46
tp47
a(g7
g3
(g4
g5
(dp48
g2
I88
sg7
I18
sg8
I88
sg9
I25
sg10
I12
sg11
I31
sg12
I2
sg13
I9
sg14
I2
sg15
I1
sg16
I2
sg17
I1
sg18
I755
sg19
I5
sg20
I14
sg21
I2
sg22
I3
sg23
I8
sg24
I3
sg25
I3
sg26
I1
sg27
I3
sg28
I1
sg29
I1
sg30
I7
sg31
I14
sg32
I1
sg35
I15168
sg36
I2
sg37
I8
sg39
I7
sg40
I3
sg44
I10
stp49
Rp50
tp51
a(g8
g3
(g4
g5
(dp52
g2
I133
sg7
I896
sg8
I2902
sg9
I5651
sg10
I1644
sg11
I2560
sg12
I11160
sg13
I1964
sg14
I1390
sg15
I1760
sg16
I1135
sg17
I1393
sg18
I1000
sg19
I62
sg20
I62
sg21
I52
sg22
I52
sg23
I55
sg24
I1
sg25
I57
sg26
I1
sg28
I3
sg29
I1
sg30
I1
sg31
I1
sg32
I3
sg33
I5
sg34
I5
sg35
I3
sg36
I6
sg37
I4
sg39
I3
sg40
I1
sg41
I1
sg43
I2
stp53
Rp54
tp55
a(g9
g3
(g4
g5
(dp56
g2
I148
sg7
I1042
sg8
I5191
sg9
I5314
sg10
I1464
sg11
I2386
sg12
I1353
sg13
I2158
sg14
I1295
sg15
I1374
sg16
I5760
sg17
I1341
sg18
I1481
sg19
I65
sg20
I67
sg21
I70
sg22
I67
sg23
I59
sg24
I1
sg25
I64
sg26
I1
sg27
I2
sg28
I4
sg29
I3
sg30
I4
sg32
I2
sg34
I1
sg35
I3
sg36
I6
sg37
I3
sg38
I1
sg39
I4
sg41
I1
sg43
I2
stp57
Rp58
tp59
a(g10
g3
(g4
g5
(dp60
g37
I3
sg35
I2
sg42
I2
sg43
I1
sg33
I3
sg18
I1130
sg19
I61
sg2
I114
sg20
I53
sg21
I58
sg22
I83
sg23
I58
sg24
I1
sg25
I68
sg27
I1
sg30
I2
sg36
I4
sg32
I2
sg7
I812
sg8
I1328
sg9
I1498
sg10
I1001
sg11
I951
sg12
I907
sg13
I928
sg14
I800
sg15
I906
sg16
I831
sg17
I655
sg34
I1
sg39
I2
stp61
Rp62
tp63
a(g11
g3
(g4
g5
(dp64
g2
I123
sg7
I1006
sg8
I1953
sg9
I3579
sg10
I1501
sg11
I1567
sg12
I1537
sg13
I1332
sg14
I991
sg15
I1206
sg16
I1567
sg17
I1523
sg18
I1160
sg19
I59
sg20
I55
sg21
I47
sg22
I77
sg23
I69
sg25
I58
sg27
I3
sg29
I2
sg30
I1
sg31
I1
sg32
I1
sg33
I5
sg35
I1
sg36
I1
sg38
I2
sg39
I3
sg41
I1
sg42
I1
sg43
I3
stp65
Rp66
tp67
a(g12
g3
(g4
g5
(dp68
g2
I305
sg7
I1247
sg8
I5030
sg9
I4817
sg10
I795
sg11
I1239
sg12
I840
sg13
I1286
sg14
I769
sg15
I850
sg16
I749
sg17
I676
sg18
I1072
sg19
I60
sg20
I49
sg21
I59
sg22
I70
sg23
I74
sg24
I2
sg25
I60
sg26
I1
sg27
I2
sg29
I3
sg30
I2
sg31
I1
sg32
I3
sg35
I6
sg36
I3
sg37
I2
sg38
I2
sg39
I4
sg40
I1
sg41
I1
sg43
I3
stp69
Rp70
tp71
a(g13
g3
(g4
g5
(dp72
g2
I163
sg7
I935
sg8
I966
sg9
I1179
sg10
I1136
sg11
I1101
sg12
I994
sg13
I1240
sg14
I733
sg15
I817
sg16
I1865
sg17
I895
sg18
I1203
sg19
I53
sg20
I59
sg21
I59
sg22
I63
sg23
I68
sg25
I66
sg28
I1
sg29
I1
sg31
I2
sg33
I2
sg34
I1
sg35
I2
sg36
I3
sg37
I1
sg38
I1
sg39
I8
sg41
I2
sg42
I3
sg43
I3
stp73
Rp74
tp75
a(g14
g3
(g4
g5
(dp76
g35
I1
sg42
I1
sg38
I3
sg18
I714
sg19
I52
sg2
I127
sg20
I52
sg21
I60
sg22
I71
sg23
I62
sg25
I58
sg26
I1
sg27
I1
sg28
I1
sg29
I2
sg30
I2
sg36
I3
sg32
I7
sg7
I711
sg8
I1416
sg9
I1590
sg10
I987
sg11
I1562
sg12
I690
sg13
I730
sg14
I826
sg15
I681
sg16
I622
sg17
I818
sg34
I1
sg39
I4
stp77
Rp78
tp79
a(g15
g3
(g4
g5
(dp80
g43
I1
sg37
I2
sg18
I696
sg19
I58
sg2
I83
sg20
I63
sg21
I53
sg22
I70
sg23
I57
sg24
I1
sg25
I67
sg28
I1
sg29
I1
sg36
I10
sg32
I3
sg7
I859
sg8
I1273
sg9
I991
sg10
I795
sg11
I897
sg12
I3600
sg13
I1828
sg14
I808
sg15
I738
sg16
I841
sg17
I681
sg39
I1
stp81
Rp82
tp83
a(g16
g3
(g4
g5
(dp84
g36
I5
sg41
I1
sg37
I1
sg38
I2
sg18
I874
sg19
I52
sg2
I103
sg20
I72
sg21
I63
sg22
I57
sg23
I46
sg24
I1
sg25
I51
sg26
I3
sg28
I2
sg31
I2
sg32
I2
sg7
I751
sg8
I3897
sg9
I1156
sg10
I1187
sg11
I3155
sg12
I788
sg13
I766
sg14
I806
sg15
I747
sg16
I1079
sg17
I677
sg39
I5
stp85
Rp86
tp87
a(g17
g3
(g4
g5
(dp88
g37
I7
sg35
I7
sg41
I1
sg43
I2
sg33
I1
sg18
I1147
sg19
I59
sg2
I75
sg20
I50
sg21
I45
sg22
I49
sg23
I57
sg25
I61
sg29
I1
sg30
I2
sg36
I3
sg32
I1
sg7
I891
sg8
I1109
sg9
I699
sg10
I725
sg11
I723
sg12
I749
sg13
I714
sg14
I674
sg15
I650
sg16
I740
sg17
I712
sg44
I1
sg34
I1
sg39
I1
stp89
Rp90
tp91
a(g18
g3
(g4
g5
(dp92
g2
I4
sg7
I7
sg8
I5649
sg9
I904
sg10
I190
sg11
I1230
sg12
I372
sg13
I112
sg14
I61
sg15
I4236
sg16
I889
sg17
I97
sg18
I29
sg19
I306
sg20
I318
sg21
I82
sg22
I90
sg23
I856
sg24
I50
sg25
I958
sg26
I1963
sg27
I61
sg28
I20
sg29
I34
sg30
I85
sg31
I96
sg32
I235
sg33
I30
sg34
I8
sg35
I74
sg36
I956
sg37
I882
sg38
I12
sg39
I120
sg40
I43
sg41
I32
sg42
I8
sg44
I1
stp93
Rp94
tp95
a(g19
g3
(g4
g5
(dp96
g2
I238
sg7
I119
sg8
I66
sg9
I70
sg10
I59
sg11
I63
sg12
I63
sg13
I61
sg14
I54
sg15
I64
sg16
I51
sg17
I64
sg18
I1909
sg19
I81
sg20
I381
sg21
I130
sg22
I87
sg23
I628
sg24
I577
sg25
I101
sg26
I181
sg27
I36
sg28
I77
sg29
I4
sg30
I1120
sg31
I1733
sg32
I8
sg33
I1196
sg34
I16
sg35
I177
sg36
I406
sg37
I1278
sg38
I837
sg39
I928
sg40
I41
sg41
I122
sg42
I188
sg43
I253
sg44
I17
stp97
Rp98
tp99
a(S'`'
p100
g3
(g4
g5
(dp101
g36
I2
stp102
Rp103
tp104
a(g20
g3
(g4
g5
(dp105
g2
I161
sg7
I834
sg8
I79
sg9
I81
sg10
I63
sg11
I70
sg12
I51
sg13
I70
sg14
I52
sg15
I59
sg16
I71
sg17
I52
sg18
I107
sg19
I817
sg20
I163
sg21
I67
sg22
I1671
sg23
I72
sg24
I6
sg25
I99
sg26
I109
sg27
I457
sg28
I234
sg29
I2
sg30
I6
sg31
I87
sg32
I694
sg33
I5
sg34
I9
sg35
I63
sg36
I21
sg37
I422
sg38
I115
sg39
I520
sg40
I2
sg41
I2371
sg42
I20
sg43
I4
sg44
I4
stp106
Rp107
tp108
a(g21
g3
(g4
g5
(dp109
g2
I25
sg7
I48
sg8
I135
sg9
I61
sg10
I72
sg11
I81
sg12
I64
sg13
I59
sg14
I54
sg15
I57
sg16
I65
sg17
I51
sg18
I30
sg19
I272
sg20
I59
sg21
I59
sg22
I486
sg23
I64
sg24
I8
sg25
I64
sg26
I171
sg27
I6
sg28
I5
sg29
I3
sg30
I8
sg31
I47
sg32
I87
sg33
I1
sg35
I201
sg36
I19
sg37
I153
sg38
I103
sg39
I14
sg40
I1
sg41
I2
sg42
I46
sg43
I2
sg44
I2
stp110
Rp111
tp112
a(g22
g3
(g4
g5
(dp113
g2
I1234
sg7
I437
sg8
I85
sg9
I187
sg10
I116
sg11
I70
sg12
I65
sg13
I62
sg14
I62
sg15
I53
sg16
I68
sg17
I62
sg18
I858
sg19
I621
sg20
I554
sg21
I104
sg22
I481
sg23
I476
sg24
I53
sg25
I6278
sg26
I158
sg27
I19
sg28
I39
sg29
I2
sg30
I672
sg31
I568
sg32
I49
sg33
I3006
sg34
I218
sg35
I321
sg36
I1086
sg37
I2089
sg38
I4
sg39
I434
sg40
I137
sg41
I135
sg42
I131
sg43
I93
sg44
I24
stp114
Rp115
tp116
a(g23
g3
(g4
g5
(dp117
g2
I570
sg7
I232
sg8
I143
sg9
I58
sg10
I56
sg11
I83
sg12
I63
sg13
I62
sg14
I68
sg15
I67
sg16
I52
sg17
I37
sg18
I876
sg19
I370
sg20
I2846
sg21
I71
sg22
I1187
sg23
I142
sg24
I74
sg25
I15365
sg26
I944
sg27
I14
sg29
I2
sg30
I26
sg31
I19
sg32
I235
sg33
I94
sg34
I1
sg35
I16
sg36
I94
sg37
I148
sg38
I87
sg39
I10
sg40
I12
sg41
I414
sg42
I31
sg43
I3
sg44
I3
stp118
Rp119
tp120
a(g24
g3
(g4
g5
(dp121
g2
I142
sg7
I56
sg8
I8
sg9
I2
sg10
I6
sg11
I6
sg12
I1
sg13
I2
sg14
I1
sg16
I1
sg17
I1
sg18
I244
sg19
I97
sg20
I4
sg21
I3
sg22
I496
sg23
I18
sg24
I13
sg25
I12
sg26
I102
sg27
I53
sg28
I3
sg29
I2
sg30
I30
sg31
I41
sg32
I92
sg33
I128
sg34
I2
sg35
I22
sg36
I33
sg37
I374
sg38
I72
sg39
I21
sg40
I3
sg41
I18
sg42
I2
sg43
I2
stp122
Rp123
tp124
a(g25
g3
(g4
g5
(dp125
g2
I111
sg7
I83
sg8
I79
sg9
I83
sg10
I54
sg11
I68
sg12
I61
sg13
I62
sg14
I60
sg15
I69
sg16
I53
sg17
I51
sg18
I19
sg19
I448
sg20
I96
sg21
I64
sg22
I255
sg23
I66
sg24
I4
sg25
I134
sg26
I312
sg27
I4
sg28
I4
sg29
I1
sg30
I22
sg31
I143
sg32
I430
sg33
I6
sg34
I2
sg35
I10
sg36
I18
sg37
I1207
sg38
I28
sg39
I6165
sg40
I3
sg41
I4
sg42
I8
sg43
I1
sg44
I2
stp126
Rp127
tp128
a(g26
g3
(g4
g5
(dp129
g2
I65
sg7
I30
sg8
I3
sg9
I3
sg10
I2
sg11
I2
sg12
I1
sg13
I2
sg16
I1
sg17
I2
sg18
I66
sg19
I937
sg20
I1588
sg21
I22
sg22
I252
sg23
I196
sg24
I174
sg25
I85
sg26
I17
sg27
I7
sg28
I20
sg29
I2
sg30
I133
sg31
I541
sg32
I699
sg33
I4634
sg34
I6
sg35
I125
sg36
I557
sg37
I338
sg38
I12
sg39
I406
sg41
I92
sg42
I4
sg43
I10
sg44
I65
stp130
Rp131
tp132
a(g27
g3
(g4
g5
(dp133
g2
I117
sg7
I44
sg8
I5
sg9
I1
sg10
I1
sg11
I3
sg14
I2
sg15
I2
sg18
I67
sg19
I330
sg20
I11
sg21
I6
sg22
I579
sg23
I2794
sg24
I7
sg25
I5
sg26
I150
sg27
I5
sg28
I1
sg29
I2
sg30
I60
sg31
I46
sg32
I199
sg33
I33
sg35
I25
sg36
I20
sg37
I68
sg38
I63
sg39
I58
sg40
I10
sg41
I7
sg42
I57
sg43
I2
sg44
I1
stp134
Rp135
tp136
a(g28
g3
(g4
g5
(dp137
g2
I96
sg7
I52
sg8
I2
sg10
I1
sg11
I2
sg13
I1
sg15
I1
sg16
I3
sg18
I18
sg19
I74
sg20
I4
sg21
I2
sg22
I200
sg23
I4
sg24
I58
sg25
I7
sg26
I77
sg27
I9
sg28
I5
sg29
I2
sg30
I14
sg31
I38
sg32
I32
sg33
I9
sg35
I5
sg36
I49
sg37
I33
sg38
I8
sg39
I4
sg40
I7
sg41
I5
sg42
I15
sg43
I1
sg44
I2
stp138
Rp139
tp140
a(g29
g3
(g4
g5
(dp141
g2
I5
sg7
I5
sg8
I1
sg9
I5
sg11
I2
sg12
I1
sg13
I1
sg14
I1
sg15
I1
sg16
I1
sg18
I3
sg19
I79
sg20
I2
sg22
I50
sg23
I2
sg24
I1
sg26
I14
sg27
I1
sg28
I1
sg30
I2
sg31
I1
sg32
I266
sg33
I1
sg35
I5
sg36
I5
sg37
I4
sg38
I30
sg39
I1
sg40
I3
sg41
I2
sg42
I1
sg43
I3
sg44
I1
stp142
Rp143
tp144
a(g30
g3
(g4
g5
(dp145
g2
I450
sg7
I92
sg8
I4
sg9
I1
sg11
I14
sg12
I1
sg13
I1
sg14
I7
sg17
I1
sg18
I925
sg19
I390
sg20
I49
sg21
I180
sg22
I1663
sg23
I17
sg24
I23
sg25
I4
sg26
I284
sg27
I2
sg28
I6
sg29
I2
sg30
I91
sg31
I25
sg32
I908
sg33
I7
sg34
I3
sg35
I174
sg36
I57
sg37
I11
sg38
I24
sg39
I34
sg40
I3
sg41
I16
sg42
I52
sg43
I7
sg44
I1
stp146
Rp147
tp148
a(g31
g3
(g4
g5
(dp149
g2
I754
sg7
I178
sg8
I17
sg9
I10
sg10
I10
sg11
I8
sg12
I2
sg14
I25
sg15
I1
sg17
I3
sg18
I801
sg19
I728
sg20
I59
sg21
I19
sg22
I866
sg23
I71
sg24
I7
sg25
I17
sg26
I442
sg27
I18
sg28
I23
sg29
I3
sg30
I23
sg31
I444
sg32
I276
sg33
I9
sg34
I2
sg35
I18
sg36
I81
sg37
I27
sg38
I83
sg39
I109
sg40
I10
sg41
I19
sg42
I193
sg43
I4
sg44
I2
stp150
Rp151
tp152
a(g32
g3
(g4
g5
(dp153
g2
I185
sg7
I73
sg8
I15
sg9
I606
sg10
I2
sg11
I3
sg12
I1
sg14
I5
sg17
I1
sg18
I92
sg19
I74
sg20
I472
sg21
I402
sg22
I28
sg23
I106
sg24
I105
sg25
I181
sg26
I1142
sg27
I41
sg28
I32
sg29
I5
sg30
I1413
sg31
I251
sg32
I104
sg33
I2229
sg34
I5
sg35
I144
sg36
I385
sg37
I1058
sg38
I255
sg39
I133
sg40
I123
sg41
I100
sg42
I26
sg43
I22
sg44
I2
stp154
Rp155
tp156
a(g33
g3
(g4
g5
(dp157
g2
I555
sg7
I325
sg8
I368
sg9
I90
sg10
I77
sg11
I198
sg12
I93
sg13
I44
sg14
I2333
sg15
I63
sg16
I1
sg17
I2
sg18
I105
sg19
I2275
sg20
I912
sg21
I14
sg22
I3773
sg23
I1422
sg24
I514
sg25
I87
sg26
I217
sg27
I12
sg28
I40
sg29
I6
sg30
I7
sg31
I21
sg32
I428
sg33
I319
sg34
I7
sg35
I27
sg36
I990
sg37
I10
sg38
I35
sg39
I3166
sg40
I13
sg41
I2077
sg42
I45
sg43
I2
sg44
I11
stp158
Rp159
tp160
a(g34
g3
(g4
g5
(dp161
g37
I2
sg35
I1
sg43
I1
sg33
I1
sg38
I283
sg18
I1
sg19
I1
sg2
I3
sg20
I1
sg21
I1
sg22
I2
sg23
I2
sg25
I2
sg26
I1
sg27
I2
sg29
I2
sg31
I1
sg32
I4
sg7
I6
sg8
I1
sg9
I1
sg10
I17
sg11
I3
sg12
I1
sg13
I2
sg40
I1
sg41
I5
sg17
I1
sg44
I1
sg34
I1
sg39
I7
stp162
Rp163
tp164
a(g35
g3
(g4
g5
(dp165
g2
I122
sg7
I87
sg8
I29
sg9
I10
sg10
I5
sg11
I8
sg12
I5
sg13
I16
sg14
I4
sg15
I4
sg16
I4
sg17
I7
sg18
I23
sg19
I456
sg20
I180
sg21
I9
sg22
I223
sg23
I15337
sg24
I4
sg25
I9
sg26
I45
sg27
I57
sg28
I5
sg29
I3
sg30
I22
sg31
I251
sg32
I400
sg33
I4
sg34
I1
sg35
I159
sg36
I27
sg37
I365
sg38
I28
sg39
I226
sg40
I7
sg41
I8
sg42
I26
sg43
I4
sg44
I3
stp166
Rp167
tp168
a(g36
g3
(g4
g5
(dp169
g2
I640
sg7
I267
sg8
I9
sg9
I10
sg10
I6
sg11
I13
sg12
I2
sg13
I1
sg14
I2
sg15
I2
sg16
I1
sg18
I1593
sg19
I205
sg20
I186
sg21
I23
sg22
I717
sg23
I11
sg24
I11
sg25
I32
sg26
I577
sg27
I249
sg28
I37
sg29
I2
sg30
I74
sg31
I86
sg32
I702
sg33
I12
sg34
I1
sg35
I97
sg36
I1001
sg37
I11
sg38
I208
sg39
I2795
sg40
I16
sg41
I8
sg42
I38
sg43
I4
sg44
I3
stp170
Rp171
tp172
a(g37
g3
(g4
g5
(dp173
g2
I805
sg7
I269
sg8
I47
sg9
I10
sg10
I17
sg11
I27
sg12
I11
sg13
I12
sg14
I7
sg15
I11
sg16
I2
sg17
I2
sg18
I426
sg19
I1366
sg20
I113
sg21
I28
sg22
I2133
sg23
I573
sg24
I82
sg25
I26
sg26
I504
sg27
I8
sg28
I84
sg29
I3
sg30
I207
sg31
I72
sg32
I1848
sg33
I405
sg34
I2
sg35
I173
sg36
I161
sg37
I118
sg38
I791
sg39
I576
sg40
I25
sg41
I246
sg42
I175
sg43
I10
sg44
I2
stp174
Rp175
tp176
a(g38
g3
(g4
g5
(dp177
g2
I12
sg7
I11
sg9
I4
sg11
I1
sg12
I1
sg13
I1
sg16
I2
sg17
I1
sg18
I7
sg19
I39
sg20
I54
sg21
I24
sg22
I287
sg23
I32
sg24
I49
sg25
I21
sg26
I77
sg27
I5
sg28
I6
sg29
I1
sg30
I922
sg31
I132
sg32
I14
sg33
I207
sg34
I2
sg35
I76
sg36
I937
sg37
I213
sg38
I2
sg39
I145
sg40
I3
sg41
I4
sg42
I8
sg43
I4
stp178
Rp179
tp180
a(g39
g3
(g4
g5
(dp181
g2
I646
sg7
I3529
sg8
I1401
sg9
I1720
sg10
I4
sg11
I20
sg12
I22
sg13
I9
sg14
I3
sg15
I1
sg16
I7
sg17
I7
sg18
I521
sg19
I1487
sg100
I2
sg20
I39
sg21
I12
sg22
I1000
sg23
I10
sg24
I7
sg25
I29
sg26
I1216
sg27
I324
sg28
I8
sg30
I88
sg31
I327
sg32
I413
sg33
I50
sg34
I2
sg35
I54
sg36
I822
sg37
I1856
sg38
I80
sg39
I310
sg40
I12
sg41
I337
sg42
I100
sg43
I87
sg44
I18
stp182
Rp183
tp184
a(g40
g3
(g4
g5
(dp185
g2
I80
sg7
I24
sg9
I1
sg10
I1
sg11
I2
sg12
I1
sg14
I1
sg16
I6
sg18
I18
sg19
I144
sg20
I8
sg21
I5
sg22
I105
sg23
I3
sg24
I3
sg26
I113
sg27
I25
sg28
I11
sg29
I1
sg30
I7
sg31
I6
sg32
I59
sg33
I60
sg35
I16
sg36
I33
sg37
I12
sg38
I1
sg39
I1
sg40
I7
sg41
I4
sg42
I7
sg44
I1
stp186
Rp187
tp188
a(g41
g3
(g4
g5
(dp189
g2
I34
sg7
I18
sg8
I17
sg9
I13
sg10
I3
sg11
I11
sg12
I3
sg13
I5
sg14
I1
sg15
I1
sg18
I885
sg19
I157
sg20
I15
sg21
I5
sg22
I388
sg23
I5
sg24
I3
sg25
I1
sg26
I324
sg27
I6
sg28
I3
sg29
I1
sg30
I2
sg31
I3
sg32
I1144
sg33
I6167
sg34
I2
sg35
I33
sg36
I4
sg37
I27
sg38
I7
sg39
I1
sg40
I2
sg41
I333
sg42
I6
sg44
I2
stp190
Rp191
tp192
a(g42
g3
(g4
g5
(dp193
g2
I327
sg7
I118
sg8
I7
sg9
I2
sg10
I1
sg11
I5
sg13
I1
sg15
I1
sg18
I122
sg19
I25
sg20
I15
sg21
I14
sg22
I115
sg23
I41
sg24
I40
sg25
I5
sg26
I4
sg27
I5
sg28
I6
sg29
I2
sg30
I16
sg31
I65
sg32
I44
sg33
I40
sg34
I2
sg35
I20
sg36
I80
sg37
I12
sg38
I1
sg39
I13
sg40
I1
sg41
I5
sg43
I5
sg44
I2
stp194
Rp195
tp196
a(g43
g3
(g4
g5
(dp197
g2
I183
sg7
I27
sg8
I20
sg9
I22
sg10
I8
sg11
I6
sg12
I1
sg13
I12
sg14
I4
sg15
I1
sg16
I1
sg17
I4
sg18
I97
sg19
I16
sg20
I12
sg21
I2
sg22
I21
sg23
I2
sg25
I4
sg26
I10
sg27
I4
sg28
I1
sg30
I16
sg31
I2
sg32
I4
sg33
I2
sg34
I2
sg35
I19
sg36
I4
sg37
I10
sg38
I2
sg39
I15
sg40
I3
sg41
I3
sg42
I2
sg43
I1
sg44
I1
stp198
Rp199
tp200
a(g44
g3
(g4
g5
(dp201
g37
I2
sg40
I1
sg33
I2
sg18
I7
sg19
I35
sg2
I9
sg20
I1
sg21
I2
sg22
I47
sg23
I1
sg35
I7
sg26
I20
sg27
I3
sg28
I2
sg29
I1
sg32
I11
sg7
I21
sg8
I1
sg9
I1
sg36
I1
sg11
I4
sg38
I1
sg13
I2
sg14
I1
sg42
I2
sg43
I1
sg44
I4
sg34
I2
sg39
I2
stp202
Rp203
tp204
aaS'\n\t\r~@#%^&*"\'/\\-+<>{}|$!:()[];?,='
p205
aI01
a.