(lp0
(lp1
(S' '
p2
ccopy_reg
_reconstructor
p3
(c__main__
CharCount
p4
c__builtin__
dict
p5
(dp6
g2
I36
sS'1'
p7
I104
sS'0'
p8
I11
sS'3'
p9
I42
sS'2'
p10
I83
sS'5'
p11
I5
sS'4'
p12
I8
sS'7'
p13
I7
sS'6'
p14
I61
sS'9'
p15
I24
sS'8'
p16
I9
sS'a'
p17
I221
sS'c'
p18
I243
sS'b'
p19
I257
sS'e'
p20
I91
sS'd'
p21
I89
sS'g'
p22
I37
sS'f'
p23
I184
sS'i'
p24
I639
sS'h'
p25
I153
sS'k'
p26
I23
sS'j'
p27
I23
sS'm'
p28
I193
sS'l'
p29
I181
sS'o'
p30
I82
sS'n'
p31
I109
sS'q'
p32
I21
sS'p'
p33
I142
sS's'
p34
I350
sS'r'
p35
I326
sS'u'
p36
I99
sS't'
p37
I177
sS'w'
p38
I119
sS'v'
p39
I64
sS'y'
p40
I22
sS'x'
p41
I8
sS'z'
p42
I1
stp43
Rp44
tp45
a(S'.'
p46
g3
(g4
g5
(dp47
g2
I53
sg46
I30
sg7
I4415
sg8
I2343
sg9
I1502
sg10
I1583
sg11
I801
sg12
I962
sg13
I997
sg14
I811
sg15
I1053
sg16
I848
sS'_'
p48
I1221
sg17
I13515
sg18
I12933
sg19
I661
sg20
I758
sg21
I732
sg22
I4835
sg23
I1113
sg24
I683
sg25
I2073
sg26
I353
sg27
I16521
sg28
I2151
sg29
I336
sg30
I202
sg31
I747
sg32
I31
sg33
I8676
sg34
I1600
sg35
I571
sg36
I487
sg37
I1844
sg38
I644
sg39
I501
sg40
I154
sg41
I816
sg42
I183
stp49
Rp50
tp51
a(g7
g3
(g4
g5
(dp52
g2
I32
sg46
I4735
sg7
I16420
sg8
I30503
sg9
I19480
sg10
I21753
sg11
I12936
sg12
I18887
sg13
I6698
sg14
I9484
sg15
I9701
sg16
I8137
sg48
I3532
sg17
I1732
sg18
I1996
sg19
I1787
sg20
I2599
sg21
I1848
sg22
I261
sg23
I1613
sg24
I525
sg25
I173
sg26
I280
sg27
I110
sg28
I1463
sg29
I211
sg30
I264
sg31
I266
sg32
I211
sg33
I139
sg34
I459
sg35
I178
sg36
I195
sg37
I166
sg38
I339
sg39
I244
sg40
I174
sg41
I748
sg42
I182
stp53
Rp54
tp55
a(g8
g3
(g4
g5
(dp56
g2
I247
sg46
I5209
sg7
I18432
sg8
I47874
sg9
I9560
sg10
I18302
sg11
I8308
sg12
I8217
sg13
I7962
sg14
I8810
sg15
I10262
sg16
I7447
sg48
I2370
sg17
I1883
sg18
I1659
sg19
I1666
sg20
I2072
sg21
I1516
sg22
I213
sg23
I1457
sg24
I312
sg25
I1112
sg26
I248
sg27
I191
sg28
I353
sg29
I395
sg30
I341
sg31
I516
sg32
I498
sg33
I331
sg34
I267
sg35
I223
sg36
I165
sg37
I421
sg38
I1080
sg39
I138
sg40
I425
sg41
I2474
sg42
I697
stp57
Rp58
tp59
a(g9
g3
(g4
g5
(dp60
g2
I13
sg46
I3181
sg7
I17338
sg8
I9075
sg9
I6868
sg10
I17237
sg11
I6837
sg12
I5498
sg13
I7274
sg14
I6619
sg15
I6394
sg16
I5929
sg48
I1072
sg17
I1546
sg18
I1869
sg19
I1703
sg20
I1739
sg21
I1734
sg22
I114
sg23
I2178
sg24
I655
sg25
I124
sg26
I135
sg27
I204
sg28
I604
sg29
I370
sg30
I282
sg31
I395
sg32
I287
sg33
I172
sg34
I445
sg35
I180
sg36
I188
sg37
I167
sg38
I146
sg39
I430
sg40
I101
sg41
I223
sg42
I300
stp61
Rp62
tp63
a(g10
g3
(g4
g5
(dp64
g2
I10
sg46
I3035
sg7
I17328
sg8
I17444
sg9
I6732
sg10
I7630
sg11
I7924
sg12
I7343
sg13
I17054
sg14
I6086
sg15
I14992
sg16
I7089
sg48
I1176
sg17
I1672
sg18
I1649
sg19
I2001
sg20
I1597
sg21
I1579
sg22
I176
sg23
I1953
sg24
I381
sg25
I233
sg26
I187
sg27
I184
sg28
I1319
sg29
I310
sg30
I487
sg31
I616
sg32
I483
sg33
I165
sg34
I609
sg35
I587
sg36
I182
sg37
I218
sg38
I139
sg39
I174
sg40
I290
sg41
I485
sg42
I257
stp65
Rp66
tp67
a(g11
g3
(g4
g5
(dp68
g2
I33
sg46
I1464
sg7
I7793
sg8
I9159
sg9
I6601
sg10
I6044
sg11
I5465
sg12
I5838
sg13
I4987
sg14
I6208
sg15
I15559
sg16
I5033
sg48
I1449
sg17
I1457
sg18
I1707
sg19
I1753
sg20
I1813
sg21
I1642
sg22
I115
sg23
I1656
sg24
I175
sg25
I166
sg26
I152
sg27
I261
sg28
I492
sg29
I1038
sg30
I363
sg31
I349
sg32
I186
sg33
I147
sg34
I140
sg35
I210
sg36
I111
sg37
I102
sg38
I149
sg39
I134
sg40
I239
sg41
I348
sg42
I189
stp69
Rp70
tp71
a(g12
g3
(g4
g5
(dp72
g2
I38
sg46
I2211
sg7
I16335
sg8
I8212
sg9
I6889
sg10
I6115
sg11
I6068
sg12
I15814
sg13
I13360
sg14
I6743
sg15
I5900
sg16
I6391
sg48
I906
sg17
I2025
sg18
I1743
sg19
I1844
sg20
I2252
sg21
I2101
sg22
I197
sg23
I2055
sg24
I286
sg25
I216
sg26
I124
sg27
I157
sg28
I423
sg29
I170
sg30
I193
sg31
I181
sg32
I313
sg33
I220
sg34
I226
sg35
I254
sg36
I126
sg37
I139
sg38
I332
sg39
I152
sg40
I264
sg41
I535
sg42
I158
stp73
Rp74
tp75
a(g13
g3
(g4
g5
(dp76
g2
I12
sg46
I1229
sg7
I9792
sg8
I18343
sg9
I5184
sg10
I5134
sg11
I16002
sg12
I5518
sg13
I5396
sg14
I6811
sg15
I5655
sg16
I5694
sg48
I635
sg17
I1377
sg18
I1571
sg19
I1611
sg20
I1510
sg21
I1824
sg22
I156
sg23
I1492
sg24
I110
sg25
I151
sg26
I160
sg27
I146
sg28
I202
sg29
I173
sg30
I145
sg31
I98
sg32
I147
sg33
I216
sg34
I275
sg35
I184
sg36
I104
sg37
I146
sg38
I137
sg39
I190
sg40
I106
sg41
I311
sg42
I218
stp77
Rp78
tp79
a(g14
g3
(g4
g5
(dp80
g2
I62
sg46
I3010
sg7
I7000
sg8
I9502
sg9
I6084
sg10
I5900
sg11
I6108
sg12
I5879
sg13
I5159
sg14
I5042
sg15
I5432
sg16
I5825
sg48
I956
sg17
I1735
sg18
I1742
sg19
I1417
sg20
I1273
sg21
I1577
sg22
I231
sg23
I1580
sg24
I190
sg25
I144
sg26
I119
sg27
I84
sg28
I313
sg29
I167
sg30
I122
sg31
I157
sg32
I135
sg33
I149
sg34
I192
sg35
I157
sg36
I155
sg37
I126
sg38
I149
sg39
I105
sg40
I97
sg41
I434
sg42
I187
stp81
Rp82
tp83
a(g15
g3
(g4
g5
(dp84
g2
I41
sg46
I1271
sg7
I6048
sg8
I8458
sg9
I5218
sg10
I5435
sg11
I6227
sg12
I5527
sg13
I14774
sg14
I5919
sg15
I7375
sg16
I17287
sg48
I897
sg17
I1643
sg18
I1513
sg19
I1507
sg20
I1561
sg21
I1312
sg22
I208
sg23
I1683
sg24
I286
sg25
I133
sg26
I395
sg27
I228
sg28
I423
sg29
I140
sg30
I153
sg31
I198
sg32
I219
sg33
I173
sg34
I135
sg35
I148
sg36
I113
sg37
I302
sg38
I377
sg39
I152
sg40
I132
sg41
I207
sg42
I142
stp85
Rp86
tp87
a(g16
g3
(g4
g5
(dp88
g2
I7
sg46
I1400
sg7
I5954
sg8
I8347
sg9
I15436
sg10
I6216
sg11
I5197
sg12
I6202
sg13
I5472
sg14
I5643
sg15
I5361
sg16
I6901
sg48
I730
sg17
I1611
sg18
I1885
sg19
I1735
sg20
I1739
sg21
I1786
sg22
I163
sg23
I1572
sg24
I119
sg25
I125
sg26
I104
sg27
I73
sg28
I282
sg29
I177
sg30
I195
sg31
I269
sg32
I127
sg33
I146
sg34
I462
sg35
I363
sg36
I180
sg37
I116
sg38
I326
sg39
I192
sg40
I145
sg41
I705
sg42
I214
stp89
Rp90
tp91
a(g48
g3
(g4
g5
(dp92
g2
I1
sg46
I651
sg7
I4259
sg8
I3350
sg9
I898
sg10
I1697
sg11
I2062
sg12
I876
sg13
I489
sg14
I495
sg15
I316
sg16
I584
sg48
I845
sg17
I2772
sg18
I3568
sg19
I1436
sg20
I1188
sg21
I1607
sg22
I856
sg23
I1694
sg24
I6219
sg25
I1416
sg26
I335
sg27
I459
sg28
I1604
sg29
I1059
sg30
I1085
sg31
I875
sg32
I181
sg33
I2443
sg34
I4087
sg35
I1883
sg36
I3068
sg37
I2554
sg38
I918
sg39
I2962
sg40
I210
sg41
I293
sg42
I138
stp93
Rp94
tp95
a(g17
g3
(g4
g5
(dp96
g2
I120
sg46
I2272
sg7
I1964
sg8
I1713
sg9
I1584
sg10
I1928
sg11
I1654
sg12
I2219
sg13
I1604
sg14
I1575
sg15
I1584
sg16
I1674
sg48
I1562
sg17
I13641
sg18
I14169
sg19
I5968
sg20
I2428
sg21
I14293
sg22
I20969
sg23
I2213
sg24
I5400
sg25
I664
sg26
I751
sg27
I1985
sg28
I7534
sg29
I15737
sg30
I771
sg31
I11248
sg32
I1474
sg33
I8270
sg34
I21621
sg35
I15186
sg36
I4206
sg37
I26538
sg38
I1771
sg39
I3121
sg40
I3642
sg41
I2421
sg42
I669
stp97
Rp98
tp99
a(S'`'
p100
g3
(g4
g5
(dp101
g100
I1
sg42
I1
sg19
I1
sg39
I1
stp102
Rp103
tp104
a(g18
g3
(g4
g5
(dp105
g2
I541
sg46
I1580
sg7
I2181
sg8
I2105
sg9
I2413
sg10
I1941
sg11
I1664
sg12
I1643
sg13
I2062
sg14
I1786
sg15
I2369
sg16
I2031
sg48
I2600
sg17
I13971
sg100
I1
sg18
I3197
sg19
I6703
sg20
I7931
sg21
I2962
sg22
I1903
sg23
I2238
sg24
I3672
sg25
I9035
sg26
I5754
sg27
I485
sg28
I2063
sg29
I13851
sg30
I25565
sg31
I1240
sg32
I542
sg33
I1085
sg34
I7476
sg35
I6990
sg36
I2452
sg37
I8560
sg38
I407
sg39
I883
sg40
I777
sg41
I667
sg42
I364
stp106
Rp107
tp108
a(g19
g3
(g4
g5
(dp109
g2
I28
sg46
I708
sg7
I2126
sg8
I1629
sg9
I1886
sg10
I1930
sg11
I1687
sg12
I2137
sg13
I1624
sg14
I1702
sg15
I1491
sg16
I1856
sg48
I1221
sg17
I6914
sg18
I3387
sg19
I3114
sg20
I3901
sg21
I1979
sg22
I1884
sg23
I1853
sg24
I3700
sg25
I527
sg26
I906
sg27
I317
sg28
I1385
sg29
I5334
sg30
I3315
sg31
I1466
sg32
I739
sg33
I719
sg34
I2185
sg35
I2808
sg36
I3990
sg37
I1386
sg38
I892
sg39
I466
sg40
I641
sg41
I220
sg42
I476
stp110
Rp111
tp112
a(g20
g3
(g4
g5
(dp113
g2
I492
sg46
I5054
sg7
I2441
sg8
I2552
sg9
I1851
sg10
I1737
sg11
I1759
sg12
I1961
sg13
I1600
sg14
I2044
sg15
I1775
sg16
I2131
sg48
I4850
sg17
I10567
sg100
I1
sg18
I8289
sg19
I7188
sg20
I3755
sg21
I11211
sg22
I2454
sg23
I5387
sg24
I5055
sg25
I529
sg26
I544
sg27
I376
sg28
I5982
sg29
I4827
sg30
I3814
sg31
I32419
sg32
I2107
sg33
I1742
sg34
I32231
sg35
I35729
sg36
I1184
sg37
I13679
sg38
I3837
sg39
I4818
sg40
I2735
sg41
I3448
sg42
I529
stp114
Rp115
tp116
a(g21
g3
(g4
g5
(dp117
g2
I192
sg46
I2396
sg7
I1723
sg8
I1593
sg9
I1590
sg10
I1696
sg11
I1671
sg12
I1855
sg13
I1805
sg14
I1483
sg15
I1580
sg16
I1763
sg48
I1878
sg17
I8360
sg18
I4376
sg19
I2448
sg20
I17597
sg21
I2708
sg22
I2627
sg23
I2188
sg24
I19392
sg25
I562
sg26
I1017
sg27
I534
sg28
I1389
sg29
I1700
sg30
I5317
sg31
I1237
sg32
I613
sg33
I1454
sg34
I5897
sg35
I1764
sg36
I3234
sg37
I3237
sg38
I616
sg39
I1351
sg40
I10999
sg41
I548
sg42
I500
stp118
Rp119
tp120
a(g22
g3
(g4
g5
(dp121
g2
I142
sg46
I1961
sg7
I664
sg8
I166
sg9
I247
sg10
I490
sg11
I487
sg12
I231
sg13
I159
sg14
I201
sg15
I196
sg16
I162
sg48
I1373
sg17
I15627
sg18
I1249
sg19
I416
sg20
I24365
sg21
I453
sg22
I1979
sg23
I385
sg24
I8124
sg25
I4421
sg26
I440
sg27
I355
sg28
I2451
sg29
I2550
sg30
I3315
sg31
I1404
sg32
I533
sg33
I897
sg34
I1402
sg35
I2050
sg36
I4211
sg37
I1110
sg38
I2046
sg39
I501
sg40
I751
sg41
I373
sg42
I473
stp122
Rp123
tp124
a(g23
g3
(g4
g5
(dp125
g2
I34
sg46
I499
sg7
I1761
sg8
I1447
sg9
I1497
sg10
I1633
sg11
I1477
sg12
I1912
sg13
I1464
sg14
I1491
sg15
I1638
sg16
I1505
sg48
I563
sg17
I4835
sg18
I2026
sg19
I2270
sg20
I4020
sg21
I1831
sg22
I553
sg23
I3881
sg24
I7157
sg25
I369
sg26
I356
sg27
I977
sg28
I718
sg29
I2639
sg30
I5323
sg31
I561
sg32
I496
sg33
I814
sg34
I1293
sg35
I1872
sg36
I1032
sg37
I1180
sg38
I566
sg39
I321
sg40
I999
sg41
I288
sg42
I235
stp126
Rp127
tp128
a(g24
g3
(g4
g5
(dp129
g2
I7
sg46
I723
sg7
I921
sg8
I732
sg9
I779
sg10
I663
sg11
I291
sg12
I276
sg13
I210
sg14
I202
sg15
I147
sg16
I137
sg48
I469
sg17
I3873
sg18
I12294
sg19
I3163
sg20
I16067
sg21
I39758
sg22
I6826
sg23
I6429
sg24
I541
sg25
I324
sg26
I651
sg27
I557
sg28
I20108
sg29
I9508
sg30
I9297
sg31
I29215
sg32
I636
sg33
I4401
sg34
I7378
sg35
I2276
sg36
I822
sg37
I11881
sg38
I468
sg39
I2983
sg40
I567
sg41
I1952
sg42
I1865
stp130
Rp131
tp132
a(g25
g3
(g4
g5
(dp133
g2
I58
sg46
I1583
sg7
I271
sg8
I567
sg9
I219
sg10
I230
sg11
I213
sg12
I131
sg13
I184
sg14
I170
sg15
I104
sg16
I138
sg48
I655
sg17
I5074
sg18
I551
sg19
I508
sg20
I13089
sg21
I2020
sg22
I521
sg23
I612
sg24
I2532
sg25
I509
sg26
I281
sg27
I316
sg28
I779
sg29
I832
sg30
I4549
sg31
I458
sg32
I257
sg33
I2028
sg34
I706
sg35
I1249
sg36
I2247
sg37
I11699
sg38
I233
sg39
I350
sg40
I546
sg41
I759
sg42
I370
stp134
Rp135
tp136
a(g26
g3
(g4
g5
(dp137
g2
I162
sg46
I1113
sg7
I181
sg8
I259
sg9
I280
sg10
I811
sg11
I157
sg12
I181
sg13
I96
sg14
I123
sg15
I238
sg16
I165
sg48
I648
sg17
I769
sg18
I659
sg19
I472
sg20
I5003
sg21
I724
sg22
I549
sg23
I260
sg24
I3047
sg25
I423
sg26
I238
sg27
I329
sg28
I808
sg29
I626
sg30
I548
sg31
I412
sg32
I418
sg33
I459
sg34
I715
sg35
I722
sg36
I524
sg37
I1146
sg38
I493
sg39
I330
sg40
I816
sg41
I472
sg42
I634
stp138
Rp139
tp140
a(g27
g3
(g4
g5
(dp141
g2
I15
sg46
I66
sg7
I305
sg8
I149
sg9
I252
sg10
I151
sg11
I88
sg12
I371
sg13
I99
sg14
I156
sg15
I91
sg16
I156
sg48
I90
sg17
I2121
sg18
I1664
sg19
I1602
sg20
I2541
sg21
I523
sg22
I1016
sg23
I341
sg24
I1046
sg25
I818
sg26
I629
sg27
I796
sg28
I726
sg29
I515
sg30
I734
sg31
I428
sg32
I1749
sg33
I10586
sg34
I11293
sg35
I282
sg36
I559
sg37
I481
sg38
I346
sg39
I547
sg40
I419
sg41
I381
sg42
I237
stp142
Rp143
tp144
a(g28
g3
(g4
g5
(dp145
g2
I86
sg46
I946
sg7
I988
sg8
I502
sg9
I1024
sg10
I406
sg11
I441
sg12
I784
sg13
I198
sg14
I210
sg15
I397
sg16
I151
sg48
I1667
sg17
I26803
sg18
I1792
sg19
I3080
sg20
I13927
sg21
I2355
sg22
I3955
sg23
I1331
sg24
I4990
sg25
I385
sg26
I1350
sg27
I1911
sg28
I2232
sg29
I3652
sg30
I4026
sg31
I945
sg32
I761
sg33
I6154
sg34
I3617
sg35
I514
sg36
I1144
sg37
I1933
sg38
I995
sg39
I652
sg40
I901
sg41
I574
sg42
I1759
stp146
Rp147
tp148
a(g29
g3
(g4
g5
(dp149
g2
I196
sg46
I3582
sg7
I430
sg8
I569
sg9
I268
sg10
I456
sg11
I286
sg12
I233
sg13
I194
sg14
I144
sg15
I167
sg16
I251
sg48
I1552
sg17
I9067
sg18
I2337
sg19
I2397
sg20
I19803
sg21
I1498
sg22
I474
sg23
I646
sg24
I21082
sg25
I400
sg26
I645
sg27
I429
sg28
I1052
sg29
I11201
sg30
I10684
sg31
I694
sg32
I735
sg33
I756
sg34
I2564
sg35
I1813
sg36
I2902
sg37
I6537
sg38
I344
sg39
I1074
sg40
I1267
sg41
I354
sg42
I503
stp150
Rp151
tp152
a(g30
g3
(g4
g5
(dp153
g2
I92
sg46
I1137
sg7
I264
sg8
I538
sg9
I256
sg10
I217
sg11
I252
sg12
I145
sg13
I136
sg14
I229
sg15
I133
sg16
I210
sg48
I1391
sg17
I3598
sg18
I3889
sg19
I2967
sg20
I533
sg21
I6694
sg22
I4258
sg23
I2137
sg24
I1398
sg25
I805
sg26
I2510
sg27
I954
sg28
I14682
sg29
I4657
sg30
I5523
sg31
I23017
sg32
I316
sg33
I5496
sg34
I3981
sg35
I12659
sg36
I6331
sg37
I4532
sg38
I5388
sg39
I3083
sg40
I622
sg41
I1639
sg42
I440
stp154
Rp155
tp156
a(g31
g3
(g4
g5
(dp157
g2
I177
sg46
I13981
sg7
I510
sg8
I363
sg9
I237
sg10
I509
sg11
I445
sg12
I305
sg13
I238
sg14
I152
sg15
I150
sg16
I197
sg48
I1980
sg17
I4800
sg18
I4035
sg19
I612
sg20
I10824
sg21
I10848
sg22
I22032
sg23
I1399
sg24
I3236
sg25
I1624
sg26
I1502
sg27
I1029
sg28
I833
sg29
I1676
sg30
I2621
sg31
I2025
sg32
I339
sg33
I779
sg34
I6411
sg35
I810
sg36
I1779
sg37
I31320
sg38
I865
sg39
I1504
sg40
I555
sg41
I822
sg42
I775
stp158
Rp159
tp160
a(g32
g3
(g4
g5
(dp161
g2
I1
sg46
I459
sg7
I284
sg8
I250
sg9
I463
sg10
I405
sg11
I267
sg12
I336
sg13
I146
sg14
I144
sg15
I271
sg16
I144
sg48
I445
sg17
I1002
sg100
I1
sg18
I358
sg19
I454
sg20
I487
sg21
I269
sg22
I525
sg23
I234
sg24
I743
sg25
I181
sg26
I327
sg27
I434
sg28
I1061
sg29
I674
sg30
I427
sg31
I338
sg32
I582
sg33
I481
sg34
I1299
sg35
I310
sg36
I5026
sg37
I875
sg38
I631
sg39
I455
sg40
I543
sg41
I621
sg42
I469
stp162
Rp163
tp164
a(g33
g3
(g4
g5
(dp165
g2
I70
sg46
I2002
sg7
I438
sg8
I673
sg9
I260
sg10
I623
sg11
I179
sg12
I249
sg13
I130
sg14
I170
sg15
I119
sg16
I141
sg48
I2290
sg17
I8176
sg18
I1391
sg19
I686
sg20
I6642
sg21
I2003
sg22
I10322
sg23
I603
sg24
I7366
sg25
I3095
sg26
I743
sg27
I361
sg28
I561
sg29
I7801
sg30
I4519
sg31
I6878
sg32
I420
sg33
I3107
sg34
I3740
sg35
I6704
sg36
I4170
sg37
I3937
sg38
I719
sg39
I776
sg40
I400
sg41
I12611
sg42
I486
stp166
Rp167
tp168
a(g34
g3
(g4
g5
(dp169
g2
I405
sg46
I5190
sg7
I1200
sg8
I990
sg9
I346
sg10
I884
sg11
I229
sg12
I181
sg13
I285
sg14
I231
sg15
I265
sg16
I196
sg48
I3334
sg17
I3886
sg18
I6114
sg19
I844
sg20
I16540
sg21
I1518
sg22
I937
sg23
I741
sg24
I12359
sg25
I5361
sg26
I1172
sg27
I617
sg28
I4415
sg29
I1814
sg30
I4896
sg31
I1099
sg32
I1180
sg33
I16247
sg34
I11854
sg35
I2190
sg36
I2809
sg37
I20112
sg38
I1895
sg39
I1187
sg40
I2303
sg41
I265
sg42
I781
stp170
Rp171
tp172
a(g35
g3
(g4
g5
(dp173
g2
I126
sg46
I2704
sg7
I476
sg8
I870
sg9
I397
sg10
I322
sg11
I422
sg12
I270
sg13
I162
sg14
I163
sg15
I354
sg16
I129
sg48
I4431
sg17
I12292
sg18
I4568
sg19
I1128
sg20
I17649
sg21
I4076
sg22
I3035
sg23
I793
sg24
I9271
sg25
I528
sg26
I3135
sg27
I528
sg28
I3185
sg29
I4198
sg30
I12544
sg31
I2977
sg32
I271
sg33
I2203
sg34
I5560
sg35
I2296
sg36
I2752
sg37
I7782
sg38
I674
sg39
I3416
sg40
I7813
sg41
I489
sg42
I349
stp174
Rp175
tp176
a(g36
g3
(g4
g5
(dp177
g2
I16
sg46
I339
sg7
I1173
sg8
I427
sg9
I508
sg10
I545
sg11
I232
sg12
I189
sg13
I250
sg14
I182
sg15
I369
sg16
I273
sg48
I195
sg17
I2083
sg18
I1881
sg19
I3838
sg20
I5068
sg21
I1313
sg22
I1951
sg23
I465
sg24
I5404
sg25
I550
sg26
I248
sg27
I520
sg28
I4559
sg29
I4155
sg30
I396
sg31
I3168
sg32
I348
sg33
I4521
sg34
I11710
sg35
I7814
sg36
I914
sg37
I6882
sg38
I552
sg39
I443
sg40
I747
sg41
I619
sg42
I550
stp178
Rp179
tp180
a(g37
g3
(g4
g5
(dp181
g2
I264
sg46
I5291
sg7
I565
sg8
I462
sg9
I309
sg10
I701
sg11
I156
sg12
I239
sg13
I165
sg14
I195
sg15
I164
sg16
I155
sg48
I2893
sg17
I13777
sg18
I2403
sg19
I1377
sg20
I31713
sg21
I1055
sg22
I902
sg23
I1204
sg24
I18141
sg25
I9431
sg26
I809
sg27
I707
sg28
I4857
sg29
I3758
sg30
I8862
sg31
I2591
sg32
I836
sg33
I7855
sg34
I9121
sg35
I10092
sg36
I2750
sg37
I9343
sg38
I1418
sg39
I776
sg40
I6234
sg41
I1306
sg42
I1253
stp182
Rp183
tp184
a(g38
g3
(g4
g5
(dp185
g2
I43
sg46
I5047
sg7
I248
sg8
I213
sg9
I221
sg10
I197
sg11
I268
sg12
I139
sg13
I169
sg14
I166
sg15
I238
sg16
I69
sg48
I1558
sg17
I1795
sg18
I673
sg19
I526
sg20
I6136
sg21
I459
sg22
I214
sg23
I850
sg24
I4890
sg25
I1653
sg26
I336
sg27
I345
sg28
I1813
sg29
I538
sg30
I2135
sg31
I1659
sg32
I1067
sg33
I3047
sg34
I3312
sg35
I754
sg36
I1067
sg37
I944
sg38
I9500
sg39
I498
sg40
I461
sg41
I1992
sg42
I369
stp186
Rp187
tp188
a(g39
g3
(g4
g5
(dp189
g2
I9
sg46
I299
sg7
I1216
sg8
I203
sg9
I1786
sg10
I1267
sg11
I234
sg12
I440
sg13
I227
sg14
I236
sg15
I277
sg16
I146
sg48
I380
sg17
I3252
sg100
I1
sg18
I1754
sg19
I980
sg20
I10202
sg21
I342
sg22
I532
sg23
I264
sg24
I7724
sg25
I292
sg26
I346
sg27
I299
sg28
I685
sg29
I1275
sg30
I563
sg31
I533
sg32
I238
sg33
I1391
sg34
I545
sg35
I387
sg36
I517
sg37
I1741
sg38
I463
sg39
I499
sg40
I405
sg41
I309
sg42
I467
stp190
Rp191
tp192
a(g40
g3
(g4
g5
(dp193
g2
I119
sg46
I1692
sg7
I368
sg8
I191
sg9
I162
sg10
I680
sg11
I181
sg12
I139
sg13
I106
sg14
I97
sg15
I283
sg16
I78
sg48
I2320
sg17
I824
sg100
I1
sg18
I585
sg19
I658
sg20
I1432
sg21
I540
sg22
I342
sg23
I399
sg24
I886
sg25
I436
sg26
I303
sg27
I673
sg28
I1080
sg29
I1609
sg30
I2047
sg31
I12272
sg32
I570
sg33
I3564
sg34
I1217
sg35
I986
sg36
I571
sg37
I1272
sg38
I877
sg39
I268
sg40
I419
sg41
I450
sg42
I552
stp194
Rp195
tp196
a(g41
g3
(g4
g5
(dp197
g2
I23
sg46
I942
sg7
I1805
sg8
I276
sg9
I655
sg10
I939
sg11
I582
sg12
I354
sg13
I312
sg14
I861
sg15
I562
sg16
I360
sg48
I371
sg17
I501
sg18
I513
sg19
I438
sg20
I1547
sg21
I953
sg22
I540
sg23
I502
sg24
I873
sg25
I474
sg26
I384
sg27
I461
sg28
I1759
sg29
I729
sg30
I447
sg31
I1059
sg32
I296
sg33
I1020
sg34
I527
sg35
I387
sg36
I405
sg37
I2174
sg38
I1501
sg39
I425
sg40
I503
sg41
I312
sg42
I281
stp198
Rp199
tp200
a(g42
g3
(g4
g5
(dp201
g2
I2
sg46
I72
sg7
I380
sg8
I400
sg9
I139
sg10
I314
sg11
I189
sg12
I204
sg13
I178
sg14
I146
sg15
I118
sg16
I154
sg48
I80
sg17
I1259
sg18
I687
sg19
I985
sg20
I1666
sg21
I370
sg22
I698
sg23
I566
sg24
I1818
sg25
I353
sg26
I575
sg27
I577
sg28
I1005
sg29
I526
sg30
I1107
sg31
I649
sg32
I602
sg33
I418
sg34
I257
sg35
I284
sg36
I473
sg37
I713
sg38
I339
sg39
I210
sg40
I517
sg41
I292
sg42
I487
stp202
Rp203
tp204
aaS'\n\t\r~@#%^&*"\'/\\-+<>{}|$!:()[];?,='
p205
aI01
a.